<?xml version='1.0' encoding='UTF-8'?>
<hotspot_log version='160 1' process='24637' time_ms='1566317997220'>
<vm_version>
<name>
Java HotSpot(TM) 64-Bit Server VM
</name>
<release>
25.191-b12
</release>
<info>
Java HotSpot(TM) 64-Bit Server VM (25.191-b12) for linux-amd64 JRE (1.8.0_191-b12), built on Oct  6 2018 05:43:09 by &quot;java_re&quot; with gcc 7.3.0
</info>
</vm_version>
<vm_arguments>
<args>
-Dvisualvm.id=131996213290268 -XX:+UnlockDiagnosticVMOptions -XX:+PrintAssembly -XX:+LogCompilation -XX:PrintAssemblyOptions=intel,mpad=10,cpad=10,code 
</args>
<command>
*JITDemo.main -javaagent:/home/lgj/java/idea-IU-183.4886.37/lib/idea_rt.jar=33399:/home/lgj/java/idea-IU-183.4886.37/bin -Dfile.encoding=UTF-8 -classpath /home/lgj/java/jdk1.8.0_191/jre/lib/charsets.jar:/home/lgj/java/jdk1.8.0_191/jre/lib/deploy.jar:/home/lgj/java/jdk1.8.0_191/jre/lib/ext/cldrdata.jar:/home/lgj/java/jdk1.8.0_191/jre/lib/ext/dnsns.jar:/home/lgj/java/jdk1.8.0_191/jre/lib/ext/jaccess.jar:/home/lgj/java/jdk1.8.0_191/jre/lib/ext/jfxrt.jar:/home/lgj/java/jdk1.8.0_191/jre/lib/ext/localedata.jar:/home/lgj/java/jdk1.8.0_191/jre/lib/ext/nashorn.jar:/home/lgj/java/jdk1.8.0_191/jre/lib/ext/sunec.jar:/home/lgj/java/jdk1.8.0_191/jre/lib/ext/sunjce_provider.jar:/home/lgj/java/jdk1.8.0_191/jre/lib/ext/sunpkcs11.jar:/home/lgj/java/jdk1.8.0_191/jre/lib/ext/zipfs.jar:/home/lgj/java/jdk1.8.0_191/jre/lib/javaws.jar:/home/lgj/java/jdk1.8.0_191/jre/lib/jce.jar:/home/lgj/java/jdk1.8.0_191/jre/lib/jfr.jar:/home/lgj/java/jdk1.8.0_191/jre/lib/jfxswt.jar:/home/lgj/java/jdk1.8.0_191/jre/lib/jsse.jar:/home/lgj/java/jdk1.8.0_191/jre/lib/management-agent.jar:/home/lgj/java/jdk1.8.0_191/jre/lib/plugin.jar:/home/lgj/java/jdk1.8.0_191/jre/lib/resources.jar:/home/lgj/java/jdk1.8.0_191/jre/lib/rt.jar:/home/lgj/aProject/aRealPrj/Java-Interview/demo/target/classes:/home/lgj/.m2/repository/org/springframework/boot/spring-boot-starter/2.1.6.RELEASE/spring-boot-starter-2.1.6.RELEASE.jar:/home/lgj/.m2/repository/org/springframework/boot/spring-boot/2.1.6.RELEASE/spring-boot-2.1.6.RELEASE.jar:/home/lgj/.m2/repository/org/springframework/spring-context/5.1.8.RELEASE/spring-context-5.1.8.RELEASE.jar:/home/lgj/.m2/repository/org/springframework/spring-aop/5.1.8.RELEASE/spring-aop-5.1.8.RELEASE.jar:/home/lgj/.m2/repository/org/springframework/spring-beans/5.1.8.RELEASE/spring-beans-5.1.8.RELEASE.jar:/home/lgj/.m2/repository/org/springframework/spring-expression/5.1.8.RELEASE/spring-expression-5.1.8.RELEASE.jar:/home/lgj/.m2/repository/org/springframework/boot/spring-boot-autoconfigure/2.1.6.REL
</command>
<launcher>
SUN_STANDARD
</launcher>
<properties>
java.vm.specification.name=Java Virtual Machine Specification
java.vm.version=25.191-b12
java.vm.name=Java HotSpot(TM) 64-Bit Server VM
java.vm.info=mixed mode, sharing
java.ext.dirs=/home/lgj/java/jdk1.8.0_191/jre/lib/ext:/usr/java/packages/lib/ext
java.endorsed.dirs=/home/lgj/java/jdk1.8.0_191/jre/lib/endorsed
sun.boot.library.path=/home/lgj/java/jdk1.8.0_191/jre/lib/amd64
java.library.path=/usr/java/packages/lib/amd64:/usr/lib64:/lib64:/lib:/usr/lib
java.home=/home/lgj/java/jdk1.8.0_191/jre
java.class.path=/home/lgj/java/idea-IU-183.4886.37/lib/bootstrap.jar:/home/lgj/java/idea-IU-183.4886.37/lib/extensions.jar:/home/lgj/java/idea-IU-183.4886.37/lib/util.jar:/home/lgj/java/idea-IU-183.4886.37/lib/jdom.jar:/home/lgj/java/idea-IU-183.4886.37/lib/log4j.jar:/home/lgj/java/idea-IU-183.4886.37/lib/trove4j.jar:/home/lgj/java/idea-IU-183.4886.37/lib/jna.jar:/home/lgj/java/idea-IU-183.4886.37/jre64/lib/tools.jar
sun.boot.class.path=/home/lgj/java/jdk1.8.0_191/jre/lib/resources.jar:/home/lgj/java/jdk1.8.0_191/jre/lib/rt.jar:/home/lgj/java/jdk1.8.0_191/jre/lib/sunrsasign.jar:/home/lgj/java/jdk1.8.0_191/jre/lib/jsse.jar:/home/lgj/java/jdk1.8.0_191/jre/lib/jce.jar:/home/lgj/java/jdk1.8.0_191/jre/lib/charsets.jar:/home/lgj/java/jdk1.8.0_191/jre/lib/jfr.jar:/home/lgj/java/jdk1.8.0_191/jre/classes
java.vm.specification.vendor=Oracle Corporation
java.vm.specification.version=1.8
java.vm.vendor=Oracle Corporation
visualvm.id=131996213290268
sun.java.command=*JITDemo.main -javaagent:/home/lgj/java/idea-IU-183.4886.37/lib/idea_rt.jar=33399:/home/lgj/java/idea-IU-183.4886.37/bin -Dfile.encoding=UTF-8 -classpath /home/lgj/java/jdk1.8.0_191/jre/lib/charsets.jar:/home/lgj/java/jdk1.8.0_191/jre/lib/deploy.jar:/home/lgj/java/jdk1.8.0_191/jre/lib/ext/cldrdata.jar:/home/lgj/java/jdk1.8.0_191/jre/lib/ext/dnsns.jar:/home/lgj/java/jdk1.8.0_191/jre/lib/ext/jaccess.jar:/home/lgj/java/jdk1.8.0_191/jre/lib/ext/jfxrt.jar:/home/lgj/java/jdk1.8.0_191/jre/lib/ext/localedata.jar:/home/lgj/java/jdk1.8.0_191/jre/lib/ext/nashorn.jar:/home/lgj/java/jdk1.8.0_191/jre/lib/ext/sunec.jar:/home/lgj/java/jdk1.8.0_191/jre/lib/ext/sunjce_provider.jar:/home/lgj/java/jdk1.8.0_191/jre/lib/ext/sunpkcs11.jar:/home/lgj/java/jdk1.8.0_191/jre/lib/ext/zipfs.jar:/home/lgj/java/jdk1.8.0_191/jre/lib/javaws.jar:/home/lgj/java/jdk1.8.0_191/jre/lib/jce.jar:/home/lgj/java/jdk1.8.0_191/jre/lib/jfr.jar:/home/lgj/java/jdk1.8.0_191/jre/lib/jfxswt.jar:/home/lgj/java/jdk1.8.0_191/jre/lib/jsse.jar:/home/lgj/java/jdk1.8.0_191/jre/lib/management-agent.jar:/home/lgj/java/jdk1.8.0_191/jre/lib/plugin.jar:/home/lgj/java/jdk1.8.0_191/jre/lib/resources.jar:/home/lgj/java/jdk1.8.0_191/jre/lib/rt.jar:/home/lgj/aProject/aRealPrj/Java-Interview/demo/target/classes:/home/lgj/.m2/repository/org/springframework/boot/spring-boot-starter/2.1.6.RELEASE/spring-boot-starter-2.1.6.RELEASE.jar:/home/lgj/.m2/repository/org/springframework/boot/spring-boot/2.1.6.RELEASE/spring-boot-2.1.6.RELEASE.jar:/home/lgj/.m2/repository/org/springframework/spring-context/5.1.8.RELEASE/spring-context-5.1.8.RELEASE.jar:/home/lgj/.m2/repository/org/springframework/spring-aop/5.1.8.RELEASE/spring-aop-5.1.8.RELEASE.jar:/home/lgj/.m2/repository/org/springframework/spring-beans/5.1.8.RELEASE/spring-beans-5.1.8.RELEASE.jar:/home/lgj/.m2/repository/org/springframework/spring-expression/5.1.8.RELEASE/spring-expression-5.1.8.RELEASE.jar:/home/lgj/.m2/repository/org/springframework/boot/spring-boot-autoco
sun.java.launcher=SUN_STANDARD
</properties>
</vm_arguments>
<tty>
<writer thread='140016056293120'/>
<thread_logfile thread='140016056293120' filename='/tmp/hs_c140016056293120_pid24637.log'/>
<writer thread='140016055240448'/>
<thread_logfile thread='140016055240448' filename='/tmp/hs_c140016055240448_pid24637.log'/>
<writer thread='140016054187776'/>
<thread_logfile thread='140016054187776' filename='/tmp/hs_c140016054187776_pid24637.log'/>
<writer thread='140016548087552'/>
<task_queued compile_id='1' method='java/lang/String hashCode ()I' bytes='55' count='407' backedge_count='5120' iicount='407' level='3' stamp='0.107' comment='tiered' hot_count='407'/>
<blob name='MethodHandlesAdapterBlob' size='32000'>
<sect index='1' size='32000' free='31628'/>
</blob>
<writer thread='140016054187776'/>
Loaded disassembler from /home/lgj/java/jdk1.8.0_191/jre/lib/amd64/hsdis-amd64.so
Decoding compiled method 0x00007f580d1084d0:
Code:
RIP: 0x7f580d108640 Code size: 0x00000290
[Disassembling for mach=&apos;amd64&apos;]
[Entry Point]
[Constants]
   {method} {0x00007f580c805000} &apos;hashCode&apos; &apos;()I&apos; in &apos;java/lang/String&apos;
             [sp+0x40]  (sp of caller)
  0x00007f580d108640: 448b5608            mov       r10d,dword ptr [rsi+8h]
  0x00007f580d108644: 49c1e203            shl       r10,3h
  0x00007f580d108648: 4c3bd0              cmp       r10,rax
  0x00007f580d10864b: 0f850fd8f3ff        jne       7f580d045e60h
                                                ;   {runtime_call}
  0x00007f580d108651: 6666660f1f840000000000 nop       word ptr [rax+rax+0h]
  0x00007f580d10865c: 66666690            nop
[Verified Entry Point]
  0x00007f580d108660: 89842400c0feff      mov       dword ptr [rsp+0fffffffffffec000h],eax
  0x00007f580d108667: 55                  push      rbp
  0x00007f580d108668: 4883ec30            sub       rsp,30h
  0x00007f580d10866c: 48b830229d0c587f0000 mov       rax,7f580c9d2230h
                                                ;   {metadata(method data for {method} {0x00007f580c805000} &apos;hashCode&apos; &apos;()I&apos; in &apos;java/lang/String&apos;)}
  0x00007f580d108676: 8bb8dc000000        mov       edi,dword ptr [rax+0dch]
  0x00007f580d10867c: 83c708              add       edi,8h
  0x00007f580d10867f: 89b8dc000000        mov       dword ptr [rax+0dch],edi
  0x00007f580d108685: 48b80050800c587f0000 mov       rax,7f580c805000h
                                                ;   {metadata({method} {0x00007f580c805000} &apos;hashCode&apos; &apos;()I&apos; in &apos;java/lang/String&apos;)}
  0x00007f580d10868f: 81e7f81f0000        and       edi,1ff8h
  0x00007f580d108695: 83ff00              cmp       edi,0h
  0x00007f580d108698: 0f8433010000        je        7f580d1087d1h
                                                ;*aload_0
                                                ; - java.lang.String::hashCode@0 (line 1466)

  0x00007f580d10869e: 8b4610              mov       eax,dword ptr [rsi+10h]
                                                ;*getfield hash
                                                ; - java.lang.String::hashCode@1 (line 1466)

  0x00007f580d1086a1: 83f800              cmp       eax,0h
  0x00007f580d1086a4: 48bf30229d0c587f0000 mov       rdi,7f580c9d2230h
                                                ;   {metadata(method data for {method} {0x00007f580c805000} &apos;hashCode&apos; &apos;()I&apos; in &apos;java/lang/String&apos;)}
  0x00007f580d1086ae: 48bb0801000000000000 mov       rbx,108h
  0x00007f580d1086b8: 0f850a000000        jne       7f580d1086c8h
  0x00007f580d1086be: 48bb1801000000000000 mov       rbx,118h
  0x00007f580d1086c8: 488b141f            mov       rdx,qword ptr [rdi+rbx]
  0x00007f580d1086cc: 488d5201            lea       rdx,[rdx+1h]
  0x00007f580d1086d0: 4889141f            mov       qword ptr [rdi+rbx],rdx
  0x00007f580d1086d4: 0f85eb000000        jne       7f580d1087c5h
                                                ;*ifne
                                                ; - java.lang.String::hashCode@6 (line 1467)

  0x00007f580d1086da: 8b7e0c              mov       edi,dword ptr [rsi+0ch]
  0x00007f580d1086dd: 48c1e703            shl       rdi,3h
                                                ;*getfield value
                                                ; - java.lang.String::hashCode@10 (line 1467)

  0x00007f580d1086e1: 8b5f0c              mov       ebx,dword ptr [rdi+0ch]
                                                ;*arraylength
                                                ; - java.lang.String::hashCode@13 (line 1467)
                                                ; implicit exception: dispatches to 0x00007f580d1087e8
  0x00007f580d1086e4: 83fb00              cmp       ebx,0h
  0x00007f580d1086e7: 48ba30229d0c587f0000 mov       rdx,7f580c9d2230h
                                                ;   {metadata(method data for {method} {0x00007f580c805000} &apos;hashCode&apos; &apos;()I&apos; in &apos;java/lang/String&apos;)}
  0x00007f580d1086f1: 48b92801000000000000 mov       rcx,128h
  0x00007f580d1086fb: 0f8e0a000000        jle       7f580d10870bh
  0x00007f580d108701: 48b93801000000000000 mov       rcx,138h
  0x00007f580d10870b: 4c8b040a            mov       r8,qword ptr [rdx+rcx]
  0x00007f580d10870f: 4d8d4001            lea       r8,[r8+1h]
  0x00007f580d108713: 4c89040a            mov       qword ptr [rdx+rcx],r8
  0x00007f580d108717: 0f8ea8000000        jle       7f580d1087c5h
                                                ;*ifle
                                                ; - java.lang.String::hashCode@14 (line 1467)

  0x00007f580d10871d: ba00000000          mov       edx,0h
  0x00007f580d108722: e963000000          jmp       7f580d10878ah
                                                ;*iload_3
                                                ; - java.lang.String::hashCode@24 (line 1470)

  0x00007f580d108727: 90                  nop
  0x00007f580d108728: 4863ca              movsxd    rcx,edx
  0x00007f580d10872b: 0fb74c4f10          movzx     ecx,word ptr [rdi+rcx*2+10h]
                                                ;*caload
                                                ; - java.lang.String::hashCode@39 (line 1471)

  0x00007f580d108730: 4c8bc0              mov       r8,rax
  0x00007f580d108733: c1e005              shl       eax,5h
  0x00007f580d108736: 412bc0              sub       eax,r8d
  0x00007f580d108739: 03c1                add       eax,ecx
  0x00007f580d10873b: ffc2                inc       edx
  0x00007f580d10873d: 48b930229d0c587f0000 mov       rcx,7f580c9d2230h
                                                ;   {metadata(method data for {method} {0x00007f580c805000} &apos;hashCode&apos; &apos;()I&apos; in &apos;java/lang/String&apos;)}
  0x00007f580d108747: 448b81e0000000      mov       r8d,dword ptr [rcx+0e0h]
  0x00007f580d10874e: 4183c008            add       r8d,8h
  0x00007f580d108752: 448981e0000000      mov       dword ptr [rcx+0e0h],r8d
  0x00007f580d108759: 48b90050800c587f0000 mov       rcx,7f580c805000h
                                                ;   {metadata({method} {0x00007f580c805000} &apos;hashCode&apos; &apos;()I&apos; in &apos;java/lang/String&apos;)}
  0x00007f580d108763: 4181e0f8ff0000      and       r8d,0fff8h
  0x00007f580d10876a: 4183f800            cmp       r8d,0h
  0x00007f580d10876e: 0f8479000000        je        7f580d1087edh
                                                ; OopMap{rdi=Oop rsi=Oop off=308}
                                                ;*goto
                                                ; - java.lang.String::hashCode@45 (line 1470)

  0x00007f580d108774: 850586a98d17        test      dword ptr [7f58249e3100h],eax
                                                ;   {poll}
  0x00007f580d10877a: 48b930229d0c587f0000 mov       rcx,7f580c9d2230h
                                                ;   {metadata(method data for {method} {0x00007f580c805000} &apos;hashCode&apos; &apos;()I&apos; in &apos;java/lang/String&apos;)}
  0x00007f580d108784: ff8168010000        inc       dword ptr [rcx+168h]
                                                ;*goto
                                                ; - java.lang.String::hashCode@45 (line 1470)

  0x00007f580d10878a: 3bd3                cmp       edx,ebx
  0x00007f580d10878c: 48b930229d0c587f0000 mov       rcx,7f580c9d2230h
                                                ;   {metadata(method data for {method} {0x00007f580c805000} &apos;hashCode&apos; &apos;()I&apos; in &apos;java/lang/String&apos;)}
  0x00007f580d108796: 49b84801000000000000 mov       r8,148h
  0x00007f580d1087a0: 0f8d0a000000        jnl       7f580d1087b0h
  0x00007f580d1087a6: 49b85801000000000000 mov       r8,158h
  0x00007f580d1087b0: 4e8b0c01            mov       r9,qword ptr [rcx+r8]
  0x00007f580d1087b4: 4d8d4901            lea       r9,[r9+1h]
  0x00007f580d1087b8: 4e890c01            mov       qword ptr [rcx+r8],r9
  0x00007f580d1087bc: 0f8c66ffffff        jl        7f580d108728h
                                                ;*if_icmpge
                                                ; - java.lang.String::hashCode@30 (line 1470)

  0x00007f580d1087c2: 894610              mov       dword ptr [rsi+10h],eax
                                                ;*putfield hash
                                                ; - java.lang.String::hashCode@50 (line 1473)

  0x00007f580d1087c5: 4883c430            add       rsp,30h
  0x00007f580d1087c9: 5d                  pop       rbp
  0x00007f580d1087ca: 850530a98d17        test      dword ptr [7f58249e3100h],eax
                                                ;   {poll_return}
  0x00007f580d1087d0: c3                  ret
  0x00007f580d1087d1: 4889442408          mov       qword ptr [rsp+8h],rax
  0x00007f580d1087d6: 48c70424ffffffff    mov       qword ptr [rsp],0ffffffffffffffffh
  0x00007f580d1087de: e83d67ffff          call      7f580d0fef20h
                                                ; OopMap{rsi=Oop off=419}
                                                ;*synchronization entry
                                                ; - java.lang.String::hashCode@-1 (line 1466)
                                                ;   {runtime_call}
  0x00007f580d1087e3: e9b6feffff          jmp       7f580d10869eh
  0x00007f580d1087e8: e81361f6ff          call      7f580d06e900h
                                                ; OopMap{rsi=Oop rdi=Oop off=429}
                                                ;*arraylength
                                                ; - java.lang.String::hashCode@13 (line 1467)
                                                ;   {runtime_call}
  0x00007f580d1087ed: 48894c2408          mov       qword ptr [rsp+8h],rcx
  0x00007f580d1087f2: 48c704242d000000    mov       qword ptr [rsp],2dh
  0x00007f580d1087fa: e82167ffff          call      7f580d0fef20h
                                                ; OopMap{rdi=Oop rsi=Oop off=447}
                                                ;*goto
                                                ; - java.lang.String::hashCode@45 (line 1470)
                                                ;   {runtime_call}
  0x00007f580d1087ff: e970ffffff          jmp       7f580d108774h
  0x00007f580d108804: 90                  nop
  0x00007f580d108805: 90                  nop
  0x00007f580d108806: 498b87a8020000      mov       rax,qword ptr [r15+2a8h]
  0x00007f580d10880d: 49ba0000000000000000 mov       r10,0h
  0x00007f580d108817: 4d8997a8020000      mov       qword ptr [r15+2a8h],r10
  0x00007f580d10881e: 49ba0000000000000000 mov       r10,0h
  0x00007f580d108828: 4d8997b0020000      mov       qword ptr [r15+2b0h],r10
  0x00007f580d10882f: 4883c430            add       rsp,30h
  0x00007f580d108833: 5d                  pop       rbp
  0x00007f580d108834: e9276cf6ff          jmp       7f580d06f460h
                                                ;   {runtime_call}
  0x00007f580d108839: f4                  hlt
  0x00007f580d10883a: f4                  hlt
  0x00007f580d10883b: f4                  hlt
  0x00007f580d10883c: f4                  hlt
  0x00007f580d10883d: f4                  hlt
  0x00007f580d10883e: f4                  hlt
  0x00007f580d10883f: f4                  hlt
[Exception Handler]
[Stub Code]
  0x00007f580d108840: e81b3fffff          call      7f580d0fc760h
                                                ;   {no_reloc}
  0x00007f580d108845: 48896424d8          mov       qword ptr [rsp+0ffffffffffffffd8h],rsp
  0x00007f580d10884a: 4881ec80000000      sub       rsp,80h
  0x00007f580d108851: 4889442478          mov       qword ptr [rsp+78h],rax
  0x00007f580d108856: 48894c2470          mov       qword ptr [rsp+70h],rcx
  0x00007f580d10885b: 4889542468          mov       qword ptr [rsp+68h],rdx
  0x00007f580d108860: 48895c2460          mov       qword ptr [rsp+60h],rbx
  0x00007f580d108865: 48896c2450          mov       qword ptr [rsp+50h],rbp
  0x00007f580d10886a: 4889742448          mov       qword ptr [rsp+48h],rsi
  0x00007f580d10886f: 48897c2440          mov       qword ptr [rsp+40h],rdi
  0x00007f580d108874: 4c89442438          mov       qword ptr [rsp+38h],r8
  0x00007f580d108879: 4c894c2430          mov       qword ptr [rsp+30h],r9
  0x00007f580d10887e: 4c89542428          mov       qword ptr [rsp+28h],r10
  0x00007f580d108883: 4c895c2420          mov       qword ptr [rsp+20h],r11
  0x00007f580d108888: 4c89642418          mov       qword ptr [rsp+18h],r12
  0x00007f580d10888d: 4c896c2410          mov       qword ptr [rsp+10h],r13
  0x00007f580d108892: 4c89742408          mov       qword ptr [rsp+8h],r14
  0x00007f580d108897: 4c893c24            mov       qword ptr [rsp],r15
  0x00007f580d10889b: 48bff6598c23587f0000 mov       rdi,7f58238c59f6h
                                                ;   {external_word}
  0x00007f580d1088a5: 48be4588100d587f0000 mov       rsi,7f580d108845h
                                                ;   {internal_word}
  0x00007f580d1088af: 488bd4              mov       rdx,rsp
  0x00007f580d1088b2: 4883e4f0            and       rsp,0fffffffffffffff0h
  0x00007f580d1088b6: e8a5094c16          call      7f58235c9260h
                                                ;   {runtime_call}
  0x00007f580d1088bb: f4                  hlt
[Deopt Handler Code]
  0x00007f580d1088bc: 49babc88100d587f0000 mov       r10,7f580d1088bch
                                                ;   {section_word}
  0x00007f580d1088c6: 4152                push      r10
  0x00007f580d1088c8: e933ecf3ff          jmp       7f580d047500h
                                                ;   {runtime_call}
  0x00007f580d1088cd: f4                  hlt
  0x00007f580d1088ce: f4                  hlt
  0x00007f580d1088cf: f4                  hlt
<nmethod compile_id='1' compiler='C1' level='3' entry='0x00007f580d108640' size='1448' address='0x00007f580d1084d0' relocation_offset='296' insts_offset='368' stub_offset='880' scopes_data_offset='1032' scopes_pcs_offset='1152' dependencies_offset='1424' nul_chk_table_offset='1432' method='java/lang/String hashCode ()I' bytes='55' count='417' backedge_count='5564' iicount='417' stamp='0.128'/>
<writer thread='140016548087552'/>
<task_queued compile_id='2' method='java/lang/String equals (Ljava/lang/Object;)Z' bytes='81' count='354' backedge_count='1024' iicount='354' level='3' stamp='0.128' comment='tiered' hot_count='354'/>
<writer thread='140016054187776'/>
Decoding compiled method 0x00007f580d108a90:
Code:
RIP: 0x7f580d108c20 Code size: 0x00000550
[Entry Point]
[Constants]
   {method} {0x00007f580c804618} &apos;equals&apos; &apos;(Ljava/lang/Object;)Z&apos; in &apos;java/lang/String&apos;
   this:     rsi:rsi   = &apos;java/lang/String&apos;
   parm0:    rdx:rdx   = &apos;java/lang/Object&apos;
             [sp+0x40]  (sp of caller)
  0x00007f580d108c20: 448b5608            mov       r10d,dword ptr [rsi+8h]
  0x00007f580d108c24: 49c1e203            shl       r10,3h
  0x00007f580d108c28: 4c3bd0              cmp       r10,rax
  0x00007f580d108c2b: 0f852fd2f3ff        jne       7f580d045e60h
                                                ;   {runtime_call}
  0x00007f580d108c31: 6666660f1f840000000000 nop       word ptr [rax+rax+0h]
  0x00007f580d108c3c: 66666690            nop
[Verified Entry Point]
  0x00007f580d108c40: 89842400c0feff      mov       dword ptr [rsp+0fffffffffffec000h],eax
  0x00007f580d108c47: 55                  push      rbp
  0x00007f580d108c48: 4883ec30            sub       rsp,30h
  0x00007f580d108c4c: 48b8a0879e0c587f0000 mov       rax,7f580c9e87a0h
                                                ;   {metadata(method data for {method} {0x00007f580c804618} &apos;equals&apos; &apos;(Ljava/lang/Object;)Z&apos; in &apos;java/lang/String&apos;)}
  0x00007f580d108c56: 8bb8dc000000        mov       edi,dword ptr [rax+0dch]
  0x00007f580d108c5c: 83c708              add       edi,8h
  0x00007f580d108c5f: 89b8dc000000        mov       dword ptr [rax+0dch],edi
  0x00007f580d108c65: 48b81846800c587f0000 mov       rax,7f580c804618h
                                                ;   {metadata({method} {0x00007f580c804618} &apos;equals&apos; &apos;(Ljava/lang/Object;)Z&apos; in &apos;java/lang/String&apos;)}
  0x00007f580d108c6f: 81e7f81f0000        and       edi,1ff8h
  0x00007f580d108c75: 83ff00              cmp       edi,0h
  0x00007f580d108c78: 0f84c8030000        je        7f580d109046h
                                                ;*aload_0
                                                ; - java.lang.String::equals@0 (line 977)

  0x00007f580d108c7e: 483bf2              cmp       rsi,rdx
  0x00007f580d108c81: 48b8a0879e0c587f0000 mov       rax,7f580c9e87a0h
                                                ;   {metadata(method data for {method} {0x00007f580c804618} &apos;equals&apos; &apos;(Ljava/lang/Object;)Z&apos; in &apos;java/lang/String&apos;)}
  0x00007f580d108c8b: 48bf0801000000000000 mov       rdi,108h
  0x00007f580d108c95: 0f850a000000        jne       7f580d108ca5h
  0x00007f580d108c9b: 48bf1801000000000000 mov       rdi,118h
  0x00007f580d108ca5: 488b1c38            mov       rbx,qword ptr [rax+rdi]
  0x00007f580d108ca9: 488d5b01            lea       rbx,[rbx+1h]
  0x00007f580d108cad: 48891c38            mov       qword ptr [rax+rdi],rbx
  0x00007f580d108cb1: 0f847e030000        je        7f580d109035h
                                                ;*if_acmpne
                                                ; - java.lang.String::equals@2 (line 977)

  0x00007f580d108cb7: 4883fa00            cmp       rdx,0h
  0x00007f580d108cbb: 7519                jne       7f580d108cd6h
  0x00007f580d108cbd: 48bba0879e0c587f0000 mov       rbx,7f580c9e87a0h
                                                ;   {metadata(method data for {method} {0x00007f580c804618} &apos;equals&apos; &apos;(Ljava/lang/Object;)Z&apos; in &apos;java/lang/String&apos;)}
  0x00007f580d108cc7: 818b2001000000010000 or        dword ptr [rbx+120h],100h
  0x00007f580d108cd1: e9c0000000          jmp       7f580d108d96h
  0x00007f580d108cd6: 48b9d01600c007000000 mov       rcx,7c00016d0h
                                                ;   {metadata(&apos;java/lang/String&apos;)}
  0x00007f580d108ce0: 8b7a08              mov       edi,dword ptr [rdx+8h]
  0x00007f580d108ce3: 48c1e703            shl       rdi,3h
  0x00007f580d108ce7: 483bcf              cmp       rcx,rdi
  0x00007f580d108cea: 0f858a000000        jne       7f580d108d7ah
  0x00007f580d108cf0: 48bba0879e0c587f0000 mov       rbx,7f580c9e87a0h
                                                ;   {metadata(method data for {method} {0x00007f580c804618} &apos;equals&apos; &apos;(Ljava/lang/Object;)Z&apos; in &apos;java/lang/String&apos;)}
  0x00007f580d108cfa: 8b4a08              mov       ecx,dword ptr [rdx+8h]
  0x00007f580d108cfd: 48c1e103            shl       rcx,3h
  0x00007f580d108d01: 483b8b30010000      cmp       rcx,qword ptr [rbx+130h]
  0x00007f580d108d08: 750d                jne       7f580d108d17h
  0x00007f580d108d0a: 4883833801000001    add       qword ptr [rbx+138h],1h
  0x00007f580d108d12: e984000000          jmp       7f580d108d9bh
  0x00007f580d108d17: 483b8b40010000      cmp       rcx,qword ptr [rbx+140h]
  0x00007f580d108d1e: 750d                jne       7f580d108d2dh
  0x00007f580d108d20: 4883834801000001    add       qword ptr [rbx+148h],1h
  0x00007f580d108d28: e96e000000          jmp       7f580d108d9bh
  0x00007f580d108d2d: 4881bb3001000000000000 cmp       qword ptr [rbx+130h],0h
  0x00007f580d108d38: 7517                jne       7f580d108d51h
  0x00007f580d108d3a: 48898b30010000      mov       qword ptr [rbx+130h],rcx
  0x00007f580d108d41: 48c7833801000001000000 mov       qword ptr [rbx+138h],1h
  0x00007f580d108d4c: e94a000000          jmp       7f580d108d9bh
  0x00007f580d108d51: 4881bb4001000000000000 cmp       qword ptr [rbx+140h],0h
  0x00007f580d108d5c: 7517                jne       7f580d108d75h
  0x00007f580d108d5e: 48898b40010000      mov       qword ptr [rbx+140h],rcx
  0x00007f580d108d65: 48c7834801000001000000 mov       qword ptr [rbx+148h],1h
  0x00007f580d108d70: e926000000          jmp       7f580d108d9bh
  0x00007f580d108d75: e921000000          jmp       7f580d108d9bh
  0x00007f580d108d7a: 48bba0879e0c587f0000 mov       rbx,7f580c9e87a0h
                                                ;   {metadata(method data for {method} {0x00007f580c804618} &apos;equals&apos; &apos;(Ljava/lang/Object;)Z&apos; in &apos;java/lang/String&apos;)}
  0x00007f580d108d84: 4883ab2801000001    sub       qword ptr [rbx+128h],1h
  0x00007f580d108d8c: e905000000          jmp       7f580d108d96h
  0x00007f580d108d91: e905000000          jmp       7f580d108d9bh
  0x00007f580d108d96: 4833c0              xor       rax,rax
  0x00007f580d108d99: eb0a                jmp       7f580d108da5h
  0x00007f580d108d9b: 48b80100000000000000 mov       rax,1h
                                                ;*instanceof
                                                ; - java.lang.String::equals@8 (line 980)

  0x00007f580d108da5: 83f800              cmp       eax,0h
  0x00007f580d108da8: 48b8a0879e0c587f0000 mov       rax,7f580c9e87a0h
                                                ;   {metadata(method data for {method} {0x00007f580c804618} &apos;equals&apos; &apos;(Ljava/lang/Object;)Z&apos; in &apos;java/lang/String&apos;)}
  0x00007f580d108db2: 48bf5801000000000000 mov       rdi,158h
  0x00007f580d108dbc: 0f840a000000        je        7f580d108dcch
  0x00007f580d108dc2: 48bf6801000000000000 mov       rdi,168h
  0x00007f580d108dcc: 488b1c38            mov       rbx,qword ptr [rax+rdi]
  0x00007f580d108dd0: 488d5b01            lea       rbx,[rbx+1h]
  0x00007f580d108dd4: 48891c38            mov       qword ptr [rax+rdi],rbx
  0x00007f580d108dd8: 0f8446020000        je        7f580d109024h
                                                ;*ifeq
                                                ; - java.lang.String::equals@11 (line 980)

  0x00007f580d108dde: 4883fa00            cmp       rdx,0h
  0x00007f580d108de2: 7519                jne       7f580d108dfdh
  0x00007f580d108de4: 48bba0879e0c587f0000 mov       rbx,7f580c9e87a0h
                                                ;   {metadata(method data for {method} {0x00007f580c804618} &apos;equals&apos; &apos;(Ljava/lang/Object;)Z&apos; in &apos;java/lang/String&apos;)}
  0x00007f580d108dee: 818b7001000000010000 or        dword ptr [rbx+170h],100h
  0x00007f580d108df8: e9c0000000          jmp       7f580d108ebdh
  0x00007f580d108dfd: 48b8d01600c007000000 mov       rax,7c00016d0h
                                                ;   {metadata(&apos;java/lang/String&apos;)}
  0x00007f580d108e07: 8b7a08              mov       edi,dword ptr [rdx+8h]
  0x00007f580d108e0a: 48c1e703            shl       rdi,3h
  0x00007f580d108e0e: 483bc7              cmp       rax,rdi
  0x00007f580d108e11: 0f858a000000        jne       7f580d108ea1h
  0x00007f580d108e17: 48bba0879e0c587f0000 mov       rbx,7f580c9e87a0h
                                                ;   {metadata(method data for {method} {0x00007f580c804618} &apos;equals&apos; &apos;(Ljava/lang/Object;)Z&apos; in &apos;java/lang/String&apos;)}
  0x00007f580d108e21: 8b4208              mov       eax,dword ptr [rdx+8h]
  0x00007f580d108e24: 48c1e003            shl       rax,3h
  0x00007f580d108e28: 483b8380010000      cmp       rax,qword ptr [rbx+180h]
  0x00007f580d108e2f: 750d                jne       7f580d108e3eh
  0x00007f580d108e31: 4883838801000001    add       qword ptr [rbx+188h],1h
  0x00007f580d108e39: e97f000000          jmp       7f580d108ebdh
  0x00007f580d108e3e: 483b8390010000      cmp       rax,qword ptr [rbx+190h]
  0x00007f580d108e45: 750d                jne       7f580d108e54h
  0x00007f580d108e47: 4883839801000001    add       qword ptr [rbx+198h],1h
  0x00007f580d108e4f: e969000000          jmp       7f580d108ebdh
  0x00007f580d108e54: 4881bb8001000000000000 cmp       qword ptr [rbx+180h],0h
  0x00007f580d108e5f: 7517                jne       7f580d108e78h
  0x00007f580d108e61: 48898380010000      mov       qword ptr [rbx+180h],rax
  0x00007f580d108e68: 48c7838801000001000000 mov       qword ptr [rbx+188h],1h
  0x00007f580d108e73: e945000000          jmp       7f580d108ebdh
  0x00007f580d108e78: 4881bb9001000000000000 cmp       qword ptr [rbx+190h],0h
  0x00007f580d108e83: 7517                jne       7f580d108e9ch
  0x00007f580d108e85: 48898390010000      mov       qword ptr [rbx+190h],rax
  0x00007f580d108e8c: 48c7839801000001000000 mov       qword ptr [rbx+198h],1h
  0x00007f580d108e97: e921000000          jmp       7f580d108ebdh
  0x00007f580d108e9c: e91c000000          jmp       7f580d108ebdh
  0x00007f580d108ea1: 48bba0879e0c587f0000 mov       rbx,7f580c9e87a0h
                                                ;   {metadata(method data for {method} {0x00007f580c804618} &apos;equals&apos; &apos;(Ljava/lang/Object;)Z&apos; in &apos;java/lang/String&apos;)}
  0x00007f580d108eab: 4883ab7801000001    sub       qword ptr [rbx+178h],1h
  0x00007f580d108eb3: e9a5010000          jmp       7f580d10905dh
  0x00007f580d108eb8: e900000000          jmp       7f580d108ebdh
  0x00007f580d108ebd: 488bc2              mov       rax,rdx
                                                ;*checkcast
                                                ; - java.lang.String::equals@15 (line 981)

  0x00007f580d108ec0: 8b760c              mov       esi,dword ptr [rsi+0ch]
  0x00007f580d108ec3: 48c1e603            shl       rsi,3h
                                                ;*getfield value
                                                ; - java.lang.String::equals@20 (line 982)

  0x00007f580d108ec7: 8b7e0c              mov       edi,dword ptr [rsi+0ch]
                                                ;*arraylength
                                                ; - java.lang.String::equals@23 (line 982)
                                                ; implicit exception: dispatches to 0x00007f580d109066
  0x00007f580d108eca: 8b400c              mov       eax,dword ptr [rax+0ch]
                                                ; implicit exception: dispatches to 0x00007f580d10906b
  0x00007f580d108ecd: 48c1e003            shl       rax,3h
                                                ;*getfield value
                                                ; - java.lang.String::equals@27 (line 983)

  0x00007f580d108ed1: 8b580c              mov       ebx,dword ptr [rax+0ch]
                                                ;*arraylength
                                                ; - java.lang.String::equals@30 (line 983)
                                                ; implicit exception: dispatches to 0x00007f580d109070
  0x00007f580d108ed4: 3bfb                cmp       edi,ebx
  0x00007f580d108ed6: 48bba0879e0c587f0000 mov       rbx,7f580c9e87a0h
                                                ;   {metadata(method data for {method} {0x00007f580c804618} &apos;equals&apos; &apos;(Ljava/lang/Object;)Z&apos; in &apos;java/lang/String&apos;)}
  0x00007f580d108ee0: 48baa801000000000000 mov       rdx,1a8h
  0x00007f580d108eea: 0f850a000000        jne       7f580d108efah
  0x00007f580d108ef0: 48bab801000000000000 mov       rdx,1b8h
  0x00007f580d108efa: 488b0c13            mov       rcx,qword ptr [rbx+rdx]
  0x00007f580d108efe: 488d4901            lea       rcx,[rcx+1h]
  0x00007f580d108f02: 48890c13            mov       qword ptr [rbx+rdx],rcx
  0x00007f580d108f06: 0f8518010000        jne       7f580d109024h
                                                ;*if_icmpne
                                                ; - java.lang.String::equals@31 (line 983)

  0x00007f580d108f0c: bb00000000          mov       ebx,0h
  0x00007f580d108f11: e9a9000000          jmp       7f580d108fbfh
                                                ;*iload_3
                                                ; - java.lang.String::equals@49 (line 987)

  0x00007f580d108f16: 6690                nop
  0x00007f580d108f18: 4863fb              movsxd    rdi,ebx
  0x00007f580d108f1b: 3b5e0c              cmp       ebx,dword ptr [rsi+0ch]
  0x00007f580d108f1e: 0f8351010000        jnb       7f580d109075h
  0x00007f580d108f24: 0fb77c7e10          movzx     edi,word ptr [rsi+rdi*2+10h]
                                                ;*caload
                                                ; - java.lang.String::equals@60 (line 988)

  0x00007f580d108f29: 4863cb              movsxd    rcx,ebx
  0x00007f580d108f2c: 3b580c              cmp       ebx,dword ptr [rax+0ch]
  0x00007f580d108f2f: 0f8349010000        jnb       7f580d10907eh
  0x00007f580d108f35: 0fb74c4810          movzx     ecx,word ptr [rax+rcx*2+10h]
                                                ;*caload
                                                ; - java.lang.String::equals@65 (line 988)

  0x00007f580d108f3a: 3bf9                cmp       edi,ecx
  0x00007f580d108f3c: 48bfa0879e0c587f0000 mov       rdi,7f580c9e87a0h
                                                ;   {metadata(method data for {method} {0x00007f580c804618} &apos;equals&apos; &apos;(Ljava/lang/Object;)Z&apos; in &apos;java/lang/String&apos;)}
  0x00007f580d108f46: 48b9e801000000000000 mov       rcx,1e8h
  0x00007f580d108f50: 0f840a000000        je        7f580d108f60h
  0x00007f580d108f56: 48b9f801000000000000 mov       rcx,1f8h
  0x00007f580d108f60: 4c8b040f            mov       r8,qword ptr [rdi+rcx]
  0x00007f580d108f64: 4d8d4001            lea       r8,[r8+1h]
  0x00007f580d108f68: 4c89040f            mov       qword ptr [rdi+rcx],r8
  0x00007f580d108f6c: 0f8590000000        jne       7f580d109002h
                                                ;*if_icmpeq
                                                ; - java.lang.String::equals@66 (line 988)

  0x00007f580d108f72: ffc3                inc       ebx
  0x00007f580d108f74: 48bfa0879e0c587f0000 mov       rdi,7f580c9e87a0h
                                                ;   {metadata(method data for {method} {0x00007f580c804618} &apos;equals&apos; &apos;(Ljava/lang/Object;)Z&apos; in &apos;java/lang/String&apos;)}
  0x00007f580d108f7e: 8b8fe0000000        mov       ecx,dword ptr [rdi+0e0h]
  0x00007f580d108f84: 83c108              add       ecx,8h
  0x00007f580d108f87: 898fe0000000        mov       dword ptr [rdi+0e0h],ecx
  0x00007f580d108f8d: 48bf1846800c587f0000 mov       rdi,7f580c804618h
                                                ;   {metadata({method} {0x00007f580c804618} &apos;equals&apos; &apos;(Ljava/lang/Object;)Z&apos; in &apos;java/lang/String&apos;)}
  0x00007f580d108f97: 81e1f8ff0000        and       ecx,0fff8h
  0x00007f580d108f9d: 83f900              cmp       ecx,0h
  0x00007f580d108fa0: 0f84e1000000        je        7f580d109087h
                                                ; OopMap{rax=Oop rsi=Oop off=902}
                                                ;*goto
                                                ; - java.lang.String::equals@74 (line 990)

  0x00007f580d108fa6: 850554a18d17        test      dword ptr [7f58249e3100h],eax
                                                ;   {poll}
  0x00007f580d108fac: 48bfa0879e0c587f0000 mov       rdi,7f580c9e87a0h
                                                ;   {metadata(method data for {method} {0x00007f580c804618} &apos;equals&apos; &apos;(Ljava/lang/Object;)Z&apos; in &apos;java/lang/String&apos;)}
  0x00007f580d108fb6: ff8708020000        inc       dword ptr [rdi+208h]
  0x00007f580d108fbc: 488bfa              mov       rdi,rdx
                                                ;*goto
                                                ; - java.lang.String::equals@74 (line 990)

  0x00007f580d108fbf: 488bd7              mov       rdx,rdi
  0x00007f580d108fc2: ffca                dec       edx
  0x00007f580d108fc4: 83ff00              cmp       edi,0h
  0x00007f580d108fc7: 48bfa0879e0c587f0000 mov       rdi,7f580c9e87a0h
                                                ;   {metadata(method data for {method} {0x00007f580c804618} &apos;equals&apos; &apos;(Ljava/lang/Object;)Z&apos; in &apos;java/lang/String&apos;)}
  0x00007f580d108fd1: 48b9c801000000000000 mov       rcx,1c8h
  0x00007f580d108fdb: 0f840a000000        je        7f580d108febh
  0x00007f580d108fe1: 48b9d801000000000000 mov       rcx,1d8h
  0x00007f580d108feb: 4c8b040f            mov       r8,qword ptr [rdi+rcx]
  0x00007f580d108fef: 4d8d4001            lea       r8,[r8+1h]
  0x00007f580d108ff3: 4c89040f            mov       qword ptr [rdi+rcx],r8
  0x00007f580d108ff7: 0f8416000000        je        7f580d109013h
  0x00007f580d108ffd: e916ffffff          jmp       7f580d108f18h
                                                ;*ifeq
                                                ; - java.lang.String::equals@53 (line 987)

  0x00007f580d109002: b800000000          mov       eax,0h
  0x00007f580d109007: 4883c430            add       rsp,30h
  0x00007f580d10900b: 5d                  pop       rbp
  0x00007f580d10900c: 8505eea08d17        test      dword ptr [7f58249e3100h],eax
                                                ;   {poll_return}
  0x00007f580d109012: c3                  ret   ;*ireturn
                                                ; - java.lang.String::equals@70 (line 989)

  0x00007f580d109013: b801000000          mov       eax,1h
  0x00007f580d109018: 4883c430            add       rsp,30h
  0x00007f580d10901c: 5d                  pop       rbp
  0x00007f580d10901d: 8505dda08d17        test      dword ptr [7f58249e3100h],eax
                                                ;   {poll_return}
  0x00007f580d109023: c3                  ret   ;*ireturn
                                                ; - java.lang.String::equals@78 (line 992)

  0x00007f580d109024: b800000000          mov       eax,0h
  0x00007f580d109029: 4883c430            add       rsp,30h
  0x00007f580d10902d: 5d                  pop       rbp
  0x00007f580d10902e: 8505cca08d17        test      dword ptr [7f58249e3100h],eax
                                                ;   {poll_return}
  0x00007f580d109034: c3                  ret   ;*ireturn
                                                ; - java.lang.String::equals@80 (line 995)

  0x00007f580d109035: b801000000          mov       eax,1h
  0x00007f580d10903a: 4883c430            add       rsp,30h
  0x00007f580d10903e: 5d                  pop       rbp
  0x00007f580d10903f: 8505bba08d17        test      dword ptr [7f58249e3100h],eax
                                                ;   {poll_return}
  0x00007f580d109045: c3                  ret
  0x00007f580d109046: 4889442408          mov       qword ptr [rsp+8h],rax
  0x00007f580d10904b: 48c70424ffffffff    mov       qword ptr [rsp],0ffffffffffffffffh
  0x00007f580d109053: e8c85effff          call      7f580d0fef20h
                                                ; OopMap{rsi=Oop rdx=Oop off=1080}
                                                ;*synchronization entry
                                                ; - java.lang.String::equals@-1 (line 977)
                                                ;   {runtime_call}
  0x00007f580d109058: e921fcffff          jmp       7f580d108c7eh
  0x00007f580d10905d: 48891424            mov       qword ptr [rsp],rdx
  0x00007f580d109061: e85a3affff          call      7f580d0fcac0h
                                                ; OopMap{rsi=Oop off=1094}
                                                ;*checkcast
                                                ; - java.lang.String::equals@15 (line 981)
                                                ;   {runtime_call}
  0x00007f580d109066: e89558f6ff          call      7f580d06e900h
                                                ; OopMap{rax=Oop rsi=Oop off=1099}
                                                ;*arraylength
                                                ; - java.lang.String::equals@23 (line 982)
                                                ;   {runtime_call}
  0x00007f580d10906b: e89058f6ff          call      7f580d06e900h
                                                ; OopMap{rsi=Oop off=1104}
                                                ;*getfield value
                                                ; - java.lang.String::equals@27 (line 983)
                                                ;   {runtime_call}
  0x00007f580d109070: e88b58f6ff          call      7f580d06e900h
                                                ; OopMap{rsi=Oop rax=Oop off=1109}
                                                ;*arraylength
                                                ; - java.lang.String::equals@30 (line 983)
                                                ;   {runtime_call}
  0x00007f580d109075: 48891c24            mov       qword ptr [rsp],rbx
  0x00007f580d109079: e8425ff6ff          call      7f580d06efc0h
                                                ; OopMap{rax=Oop rsi=Oop off=1118}
                                                ;*caload
                                                ; - java.lang.String::equals@60 (line 988)
                                                ;   {runtime_call}
  0x00007f580d10907e: 48891c24            mov       qword ptr [rsp],rbx
  0x00007f580d109082: e8395ff6ff          call      7f580d06efc0h
                                                ; OopMap{rax=Oop rsi=Oop off=1127}
                                                ;*caload
                                                ; - java.lang.String::equals@65 (line 988)
                                                ;   {runtime_call}
  0x00007f580d109087: 48897c2408          mov       qword ptr [rsp+8h],rdi
  0x00007f580d10908c: 48c704244a000000    mov       qword ptr [rsp],4ah
  0x00007f580d109094: e8875effff          call      7f580d0fef20h
                                                ; OopMap{rax=Oop rsi=Oop off=1145}
                                                ;*goto
                                                ; - java.lang.String::equals@74 (line 990)
                                                ;   {runtime_call}
  0x00007f580d109099: e908ffffff          jmp       7f580d108fa6h
  0x00007f580d10909e: 90                  nop
  0x00007f580d10909f: 90                  nop
  0x00007f580d1090a0: 498b87a8020000      mov       rax,qword ptr [r15+2a8h]
  0x00007f580d1090a7: 49ba0000000000000000 mov       r10,0h
  0x00007f580d1090b1: 4d8997a8020000      mov       qword ptr [r15+2a8h],r10
  0x00007f580d1090b8: 49ba0000000000000000 mov       r10,0h
  0x00007f580d1090c2: 4d8997b0020000      mov       qword ptr [r15+2b0h],r10
  0x00007f580d1090c9: 4883c430            add       rsp,30h
  0x00007f580d1090cd: 5d                  pop       rbp
  0x00007f580d1090ce: e98d63f6ff          jmp       7f580d06f460h
                                                ;   {runtime_call}
  0x00007f580d1090d3: f4                  hlt
  0x00007f580d1090d4: f4                  hlt
  0x00007f580d1090d5: f4                  hlt
  0x00007f580d1090d6: f4                  hlt
  0x00007f580d1090d7: f4                  hlt
  0x00007f580d1090d8: f4                  hlt
  0x00007f580d1090d9: f4                  hlt
  0x00007f580d1090da: f4                  hlt
  0x00007f580d1090db: f4                  hlt
  0x00007f580d1090dc: f4                  hlt
  0x00007f580d1090dd: f4                  hlt
  0x00007f580d1090de: f4                  hlt
  0x00007f580d1090df: f4                  hlt
[Exception Handler]
[Stub Code]
  0x00007f580d1090e0: e87b36ffff          call      7f580d0fc760h
                                                ;   {no_reloc}
  0x00007f580d1090e5: 48896424d8          mov       qword ptr [rsp+0ffffffffffffffd8h],rsp
  0x00007f580d1090ea: 4881ec80000000      sub       rsp,80h
  0x00007f580d1090f1: 4889442478          mov       qword ptr [rsp+78h],rax
  0x00007f580d1090f6: 48894c2470          mov       qword ptr [rsp+70h],rcx
  0x00007f580d1090fb: 4889542468          mov       qword ptr [rsp+68h],rdx
  0x00007f580d109100: 48895c2460          mov       qword ptr [rsp+60h],rbx
  0x00007f580d109105: 48896c2450          mov       qword ptr [rsp+50h],rbp
  0x00007f580d10910a: 4889742448          mov       qword ptr [rsp+48h],rsi
  0x00007f580d10910f: 48897c2440          mov       qword ptr [rsp+40h],rdi
  0x00007f580d109114: 4c89442438          mov       qword ptr [rsp+38h],r8
  0x00007f580d109119: 4c894c2430          mov       qword ptr [rsp+30h],r9
  0x00007f580d10911e: 4c89542428          mov       qword ptr [rsp+28h],r10
  0x00007f580d109123: 4c895c2420          mov       qword ptr [rsp+20h],r11
  0x00007f580d109128: 4c89642418          mov       qword ptr [rsp+18h],r12
  0x00007f580d10912d: 4c896c2410          mov       qword ptr [rsp+10h],r13
  0x00007f580d109132: 4c89742408          mov       qword ptr [rsp+8h],r14
  0x00007f580d109137: 4c893c24            mov       qword ptr [rsp],r15
  0x00007f580d10913b: 48bff6598c23587f0000 mov       rdi,7f58238c59f6h
                                                ;   {external_word}
  0x00007f580d109145: 48bee590100d587f0000 mov       rsi,7f580d1090e5h
                                                ;   {internal_word}
  0x00007f580d10914f: 488bd4              mov       rdx,rsp
  0x00007f580d109152: 4883e4f0            and       rsp,0fffffffffffffff0h
  0x00007f580d109156: e805014c16          call      7f58235c9260h
                                                ;   {runtime_call}
  0x00007f580d10915b: f4                  hlt
[Deopt Handler Code]
  0x00007f580d10915c: 49ba5c91100d587f0000 mov       r10,7f580d10915ch
                                                ;   {section_word}
  0x00007f580d109166: 4152                push      r10
  0x00007f580d109168: e993e3f3ff          jmp       7f580d047500h
                                                ;   {runtime_call}
  0x00007f580d10916d: f4                  hlt
  0x00007f580d10916e: f4                  hlt
  0x00007f580d10916f: f4                  hlt
<nmethod compile_id='2' compiler='C1' level='3' entry='0x00007f580d108c20' size='2504' address='0x00007f580d108a90' relocation_offset='296' insts_offset='400' stub_offset='1616' scopes_data_offset='1768' scopes_pcs_offset='1984' dependencies_offset='2464' nul_chk_table_offset='2472' method='java/lang/String equals (Ljava/lang/Object;)Z' bytes='81' count='378' backedge_count='1223' iicount='378' stamp='0.145'/>
<writer thread='140016548087552'/>
<task_queued compile_id='3' method='java/lang/Object &lt;init&gt; ()V' bytes='1' count='1536' iicount='1536' level='3' stamp='0.145' comment='tiered' hot_count='1536'/>
<task_queued compile_id='4' method='java/lang/String length ()I' bytes='6' count='384' iicount='384' level='3' stamp='0.146' comment='tiered' hot_count='384'/>
<task_queued compile_id='5' method='java/lang/String charAt (I)C' bytes='29' count='1792' iicount='1792' level='3' stamp='0.146' comment='tiered' hot_count='1792'/>
<writer thread='140016054187776'/>
Decoding compiled method 0x00007f580d109490:
Code:
RIP: 0x7f580d109600 Code size: 0x00000150
[Entry Point]
[Constants]
   {method} {0x00007f580c800480} &apos;&lt;init&gt;&apos; &apos;()V&apos; in &apos;java/lang/Object&apos;
             [sp+0x40]  (sp of caller)
  0x00007f580d109600: 448b5608            mov       r10d,dword ptr [rsi+8h]
  0x00007f580d109604: 49c1e203            shl       r10,3h
  0x00007f580d109608: 4c3bd0              cmp       r10,rax
  0x00007f580d10960b: 0f854fc8f3ff        jne       7f580d045e60h
                                                ;   {runtime_call}
  0x00007f580d109611: 6666660f1f840000000000 nop       word ptr [rax+rax+0h]
  0x00007f580d10961c: 66666690            nop
[Verified Entry Point]
  0x00007f580d109620: 89842400c0feff      mov       dword ptr [rsp+0fffffffffffec000h],eax
  0x00007f580d109627: 55                  push      rbp
  0x00007f580d109628: 4883ec30            sub       rsp,30h
  0x00007f580d10962c: 48bf9074970c587f0000 mov       rdi,7f580c977490h
                                                ;   {metadata(method data for {method} {0x00007f580c800480} &apos;&lt;init&gt;&apos; &apos;()V&apos; in &apos;java/lang/Object&apos;)}
  0x00007f580d109636: 8b9fdc000000        mov       ebx,dword ptr [rdi+0dch]
  0x00007f580d10963c: 83c308              add       ebx,8h
  0x00007f580d10963f: 899fdc000000        mov       dword ptr [rdi+0dch],ebx
  0x00007f580d109645: 48bf8004800c587f0000 mov       rdi,7f580c800480h
                                                ;   {metadata({method} {0x00007f580c800480} &apos;&lt;init&gt;&apos; &apos;()V&apos; in &apos;java/lang/Object&apos;)}
  0x00007f580d10964f: 81e3f81f0000        and       ebx,1ff8h
  0x00007f580d109655: 83fb00              cmp       ebx,0h
  0x00007f580d109658: 0f8419000000        je        7f580d109677h
  0x00007f580d10965e: 488bfe              mov       rdi,rsi
                                                ;*return
                                                ; - java.lang.Object::&lt;init&gt;@0 (line 37)

  0x00007f580d109661: 4889742420          mov       qword ptr [rsp+20h],rsi
  0x00007f580d109666: e8f54ff6ff          call      7f580d06e660h
                                                ; OopMap{[32]=Oop off=107}
                                                ;*return
                                                ; - java.lang.Object::&lt;init&gt;@0 (line 37)
                                                ;   {runtime_call}
  0x00007f580d10966b: 4883c430            add       rsp,30h
  0x00007f580d10966f: 5d                  pop       rbp
  0x00007f580d109670: 85058a9a8d17        test      dword ptr [7f58249e3100h],eax
                                                ;   {poll_return}
  0x00007f580d109676: c3                  ret
  0x00007f580d109677: 48897c2408          mov       qword ptr [rsp+8h],rdi
  0x00007f580d10967c: 48c70424ffffffff    mov       qword ptr [rsp],0ffffffffffffffffh
  0x00007f580d109684: e89758ffff          call      7f580d0fef20h
                                                ; OopMap{rsi=Oop off=137}
                                                ;*synchronization entry
                                                ; - java.lang.Object::&lt;init&gt;@-1 (line 37)
                                                ;   {runtime_call}
  0x00007f580d109689: ebd3                jmp       7f580d10965eh
  0x00007f580d10968b: 90                  nop
  0x00007f580d10968c: 90                  nop
  0x00007f580d10968d: 498b87a8020000      mov       rax,qword ptr [r15+2a8h]
  0x00007f580d109694: 49ba0000000000000000 mov       r10,0h
  0x00007f580d10969e: 4d8997a8020000      mov       qword ptr [r15+2a8h],r10
  0x00007f580d1096a5: 49ba0000000000000000 mov       r10,0h
  0x00007f580d1096af: 4d8997b0020000      mov       qword ptr [r15+2b0h],r10
  0x00007f580d1096b6: 4883c430            add       rsp,30h
  0x00007f580d1096ba: 5d                  pop       rbp
  0x00007f580d1096bb: e9a05df6ff          jmp       7f580d06f460h
                                                ;   {runtime_call}
[Exception Handler]
[Stub Code]
  0x00007f580d1096c0: e89b30ffff          call      7f580d0fc760h
                                                ;   {no_reloc}
  0x00007f580d1096c5: 48896424d8          mov       qword ptr [rsp+0ffffffffffffffd8h],rsp
  0x00007f580d1096ca: 4881ec80000000      sub       rsp,80h
  0x00007f580d1096d1: 4889442478          mov       qword ptr [rsp+78h],rax
  0x00007f580d1096d6: 48894c2470          mov       qword ptr [rsp+70h],rcx
  0x00007f580d1096db: 4889542468          mov       qword ptr [rsp+68h],rdx
  0x00007f580d1096e0: 48895c2460          mov       qword ptr [rsp+60h],rbx
  0x00007f580d1096e5: 48896c2450          mov       qword ptr [rsp+50h],rbp
  0x00007f580d1096ea: 4889742448          mov       qword ptr [rsp+48h],rsi
  0x00007f580d1096ef: 48897c2440          mov       qword ptr [rsp+40h],rdi
  0x00007f580d1096f4: 4c89442438          mov       qword ptr [rsp+38h],r8
  0x00007f580d1096f9: 4c894c2430          mov       qword ptr [rsp+30h],r9
  0x00007f580d1096fe: 4c89542428          mov       qword ptr [rsp+28h],r10
  0x00007f580d109703: 4c895c2420          mov       qword ptr [rsp+20h],r11
  0x00007f580d109708: 4c89642418          mov       qword ptr [rsp+18h],r12
  0x00007f580d10970d: 4c896c2410          mov       qword ptr [rsp+10h],r13
  0x00007f580d109712: 4c89742408          mov       qword ptr [rsp+8h],r14
  0x00007f580d109717: 4c893c24            mov       qword ptr [rsp],r15
  0x00007f580d10971b: 48bff6598c23587f0000 mov       rdi,7f58238c59f6h
                                                ;   {external_word}
  0x00007f580d109725: 48bec596100d587f0000 mov       rsi,7f580d1096c5h
                                                ;   {internal_word}
  0x00007f580d10972f: 488bd4              mov       rdx,rsp
  0x00007f580d109732: 4883e4f0            and       rsp,0fffffffffffffff0h
  0x00007f580d109736: e825fb4b16          call      7f58235c9260h
                                                ;   {runtime_call}
  0x00007f580d10973b: f4                  hlt
[Deopt Handler Code]
  0x00007f580d10973c: 49ba3c97100d587f0000 mov       r10,7f580d10973ch
                                                ;   {section_word}
  0x00007f580d109746: 4152                push      r10
  0x00007f580d109748: e9b3ddf3ff          jmp       7f580d047500h
                                                ;   {runtime_call}
  0x00007f580d10974d: f4                  hlt
  0x00007f580d10974e: f4                  hlt
  0x00007f580d10974f: f4                  hlt
<nmethod compile_id='3' compiler='C1' level='3' entry='0x00007f580d109600' size='832' address='0x00007f580d109490' relocation_offset='296' insts_offset='368' stub_offset='560' scopes_data_offset='712' scopes_pcs_offset='744' dependencies_offset='824' method='java/lang/Object &lt;init&gt; ()V' bytes='1' count='1570' iicount='1570' stamp='0.154'/>
<writer thread='140016548087552'/>
<task_queued compile_id='6' method='java/lang/Math min (II)I' bytes='11' count='640' iicount='640' level='3' stamp='0.154' comment='tiered' hot_count='640'/>
<writer thread='140016054187776'/>
Decoding compiled method 0x00007f580d109810:
Code:
RIP: 0x7f580d109980 Code size: 0x00000268
[Entry Point]
[Constants]
   {method} {0x00007f580c803db0} &apos;charAt&apos; &apos;(I)C&apos; in &apos;java/lang/String&apos;
   this:     rsi:rsi   = &apos;java/lang/String&apos;
   parm0:    rdx       = int
             [sp+0x40]  (sp of caller)
  0x00007f580d109980: 448b5608            mov       r10d,dword ptr [rsi+8h]
  0x00007f580d109984: 49c1e203            shl       r10,3h
  0x00007f580d109988: 4c3bd0              cmp       r10,rax
  0x00007f580d10998b: 0f85cfc4f3ff        jne       7f580d045e60h
                                                ;   {runtime_call}
  0x00007f580d109991: 6666660f1f840000000000 nop       word ptr [rax+rax+0h]
  0x00007f580d10999c: 66666690            nop
[Verified Entry Point]
  0x00007f580d1099a0: 89842400c0feff      mov       dword ptr [rsp+0fffffffffffec000h],eax
  0x00007f580d1099a7: 55                  push      rbp
  0x00007f580d1099a8: 4883ec30            sub       rsp,30h
  0x00007f580d1099ac: 488bfa              mov       rdi,rdx
  0x00007f580d1099af: 48b8e85f990c587f0000 mov       rax,7f580c995fe8h
                                                ;   {metadata(method data for {method} {0x00007f580c803db0} &apos;charAt&apos; &apos;(I)C&apos; in &apos;java/lang/String&apos;)}
  0x00007f580d1099b9: 8b90dc000000        mov       edx,dword ptr [rax+0dch]
  0x00007f580d1099bf: 83c208              add       edx,8h
  0x00007f580d1099c2: 8990dc000000        mov       dword ptr [rax+0dch],edx
  0x00007f580d1099c8: 48b8b03d800c587f0000 mov       rax,7f580c803db0h
                                                ;   {metadata({method} {0x00007f580c803db0} &apos;charAt&apos; &apos;(I)C&apos; in &apos;java/lang/String&apos;)}
  0x00007f580d1099d2: 81e2f81f0000        and       edx,1ff8h
  0x00007f580d1099d8: 83fa00              cmp       edx,0h
  0x00007f580d1099db: 0f84d5000000        je        7f580d109ab6h
                                                ;*iload_1
                                                ; - java.lang.String::charAt@0 (line 657)

  0x00007f580d1099e1: 83ff00              cmp       edi,0h
  0x00007f580d1099e4: 48b8e85f990c587f0000 mov       rax,7f580c995fe8h
                                                ;   {metadata(method data for {method} {0x00007f580c803db0} &apos;charAt&apos; &apos;(I)C&apos; in &apos;java/lang/String&apos;)}
  0x00007f580d1099ee: 48ba0801000000000000 mov       rdx,108h
  0x00007f580d1099f8: 0f8c0a000000        jl        7f580d109a08h
  0x00007f580d1099fe: 48ba1801000000000000 mov       rdx,118h
  0x00007f580d109a08: 488b1c10            mov       rbx,qword ptr [rax+rdx]
  0x00007f580d109a0c: 488d5b01            lea       rbx,[rbx+1h]
  0x00007f580d109a10: 48891c10            mov       qword ptr [rax+rdx],rbx
  0x00007f580d109a14: 0f8c5c000000        jl        7f580d109a76h
                                                ;*iflt
                                                ; - java.lang.String::charAt@1 (line 657)

  0x00007f580d109a1a: 8b460c              mov       eax,dword ptr [rsi+0ch]
  0x00007f580d109a1d: 48c1e003            shl       rax,3h
                                                ;*getfield value
                                                ; - java.lang.String::charAt@6 (line 657)

  0x00007f580d109a21: 8b500c              mov       edx,dword ptr [rax+0ch]
                                                ;*arraylength
                                                ; - java.lang.String::charAt@9 (line 657)
                                                ; implicit exception: dispatches to 0x00007f580d109acd
  0x00007f580d109a24: 3bfa                cmp       edi,edx
  0x00007f580d109a26: 48bae85f990c587f0000 mov       rdx,7f580c995fe8h
                                                ;   {metadata(method data for {method} {0x00007f580c803db0} &apos;charAt&apos; &apos;(I)C&apos; in &apos;java/lang/String&apos;)}
  0x00007f580d109a30: 48be2801000000000000 mov       rsi,128h
  0x00007f580d109a3a: 0f8c0a000000        jl        7f580d109a4ah
  0x00007f580d109a40: 48be3801000000000000 mov       rsi,138h
  0x00007f580d109a4a: 488b1c32            mov       rbx,qword ptr [rdx+rsi]
  0x00007f580d109a4e: 488d5b01            lea       rbx,[rbx+1h]
  0x00007f580d109a52: 48891c32            mov       qword ptr [rdx+rsi],rbx
  0x00007f580d109a56: 0f8d1a000000        jnl       7f580d109a76h
                                                ;*if_icmplt
                                                ; - java.lang.String::charAt@10 (line 657)

  0x00007f580d109a5c: 4863ff              movsxd    rdi,edi
  0x00007f580d109a5f: 0fb7447810          movzx     eax,word ptr [rax+rdi*2+10h]
                                                ;*caload
                                                ; - java.lang.String::charAt@27 (line 660)

  0x00007f580d109a64: 81e0ffff0000        and       eax,0ffffh
  0x00007f580d109a6a: 4883c430            add       rsp,30h
  0x00007f580d109a6e: 5d                  pop       rbp
  0x00007f580d109a6f: 85058b968d17        test      dword ptr [7f58249e3100h],eax
                                                ;   {poll_return}
  0x00007f580d109a75: c3                  ret   ;*ireturn
                                                ; - java.lang.String::charAt@28 (line 660)

  0x00007f580d109a76: 6690                nop
  0x00007f580d109a78: e964000000          jmp       7f580d109ae1h
                                                ;   {no_reloc}
  0x00007f580d109a7d: 0000                add       byte ptr [rax],al
  0x00007f580d109a7f: 0000                add       byte ptr [rax],al
  0x00007f580d109a81: 00e9                add       cl,ch
  0x00007f580d109a83: 640000              add       byte ptr fs:[rax],al
  0x00007f580d109a86: 00488b              add       byte ptr [rax+0ffffffffffffff8bh],cl
                                                ;*new  ; - java.lang.String::charAt@13 (line 658)

  0x00007f580d109a89: d048be              ror       byte ptr [rax+0ffffffffffffffbeh],1h
                                                ;   {metadata(method data for {method} {0x00007f580c803db0} &apos;charAt&apos; &apos;(I)C&apos; in &apos;java/lang/String&apos;)}
  0x00007f580d109a8c: e85f990c58          call      7f58651d33f0h
  0x00007f580d109a91: 7f00                jnle      7f580d109a93h
  0x00007f580d109a93: 004883              add       byte ptr [rax+0ffffffffffffff83h],cl
  0x00007f580d109a96: 864801              xchg      byte ptr [rax+1h],cl
  0x00007f580d109a99: 0000                add       byte ptr [rax],al
  0x00007f580d109a9b: 01488b              add       dword ptr [rax+0ffffffffffffff8bh],ecx
  0x00007f580d109a9e: d7                  xlat      byte ptr [rbx]
  0x00007f580d109a9f: 488bf0              mov       rsi,rax
                                                ;*invokespecial &lt;init&gt;
                                                ; - java.lang.String::charAt@18 (line 658)

  0x00007f580d109aa2: 4889442420          mov       qword ptr [rsp+20h],rax
  0x00007f580d109aa7: e8f4c5f3ff          call      7f580d0460a0h
                                                ; OopMap{[32]=Oop off=300}
                                                ;*invokespecial &lt;init&gt;
                                                ; - java.lang.String::charAt@18 (line 658)
                                                ;   {optimized virtual_call}
  0x00007f580d109aac: 488b442420          mov       rax,qword ptr [rsp+20h]
  0x00007f580d109ab1: e96a000000          jmp       7f580d109b20h
  0x00007f580d109ab6: 4889442408          mov       qword ptr [rsp+8h],rax
  0x00007f580d109abb: 48c70424ffffffff    mov       qword ptr [rsp],0ffffffffffffffffh
  0x00007f580d109ac3: e85854ffff          call      7f580d0fef20h
                                                ; OopMap{rsi=Oop off=328}
                                                ;*synchronization entry
                                                ; - java.lang.String::charAt@-1 (line 657)
                                                ;   {runtime_call}
  0x00007f580d109ac8: e914ffffff          jmp       7f580d1099e1h
  0x00007f580d109acd: e82e4ef6ff          call      7f580d06e900h
                                                ; OopMap{rax=Oop off=338}
                                                ;*arraylength
                                                ; - java.lang.String::charAt@9 (line 657)
                                                ;   {runtime_call}
  0x00007f580d109ad2: 48ba0000000000000000 mov       rdx,0h
                                                ;   {metadata(NULL)}
  0x00007f580d109adc: b8000f050a          mov       eax,0a050f00h
  0x00007f580d109ae1: e83a44ffff          call      7f580d0fdf20h
                                                ; OopMap{off=358}
                                                ;*new  ; - java.lang.String::charAt@13 (line 658)
                                                ;   {runtime_call}
  0x00007f580d109ae6: eb90                jmp       7f580d109a78h
  0x00007f580d109ae8: 90                  nop
  0x00007f580d109ae9: 90                  nop
  0x00007f580d109aea: 90                  nop
  0x00007f580d109aeb: 488bd2              mov       rdx,rdx
  0x00007f580d109aee: e8ed48f6ff          call      7f580d06e3e0h
                                                ; OopMap{off=371}
                                                ;*new  ; - java.lang.String::charAt@13 (line 658)
                                                ;   {runtime_call}
  0x00007f580d109af3: eb92                jmp       7f580d109a87h
  0x00007f580d109af5: 90                  nop
  0x00007f580d109af6: 90                  nop
  0x00007f580d109af7: 498b87a8020000      mov       rax,qword ptr [r15+2a8h]
  0x00007f580d109afe: 49ba0000000000000000 mov       r10,0h
  0x00007f580d109b08: 4d8997a8020000      mov       qword ptr [r15+2a8h],r10
  0x00007f580d109b0f: 49ba0000000000000000 mov       r10,0h
  0x00007f580d109b19: 4d8997b0020000      mov       qword ptr [r15+2b0h],r10
  0x00007f580d109b20: 4883c430            add       rsp,30h
  0x00007f580d109b24: 5d                  pop       rbp
  0x00007f580d109b25: e93659f6ff          jmp       7f580d06f460h
                                                ;   {runtime_call}
  0x00007f580d109b2a: f4                  hlt
  0x00007f580d109b2b: f4                  hlt
  0x00007f580d109b2c: f4                  hlt
  0x00007f580d109b2d: f4                  hlt
  0x00007f580d109b2e: f4                  hlt
  0x00007f580d109b2f: f4                  hlt
  0x00007f580d109b30: f4                  hlt
  0x00007f580d109b31: f4                  hlt
  0x00007f580d109b32: f4                  hlt
  0x00007f580d109b33: f4                  hlt
  0x00007f580d109b34: f4                  hlt
  0x00007f580d109b35: f4                  hlt
  0x00007f580d109b36: f4                  hlt
  0x00007f580d109b37: f4                  hlt
  0x00007f580d109b38: f4                  hlt
  0x00007f580d109b39: f4                  hlt
  0x00007f580d109b3a: f4                  hlt
  0x00007f580d109b3b: f4                  hlt
  0x00007f580d109b3c: f4                  hlt
  0x00007f580d109b3d: f4                  hlt
  0x00007f580d109b3e: f4                  hlt
  0x00007f580d109b3f: f4                  hlt
[Stub Code]
  0x00007f580d109b40: 90                  nop   ;   {no_reloc}
  0x00007f580d109b41: 90                  nop
  0x00007f580d109b42: 90                  nop
  0x00007f580d109b43: 90                  nop
  0x00007f580d109b44: 90                  nop
  0x00007f580d109b45: 48bb0000000000000000 mov       rbx,0h
                                                ;   {static_stub}
  0x00007f580d109b4f: e9fbffffff          jmp       7f580d109b4fh
                                                ;   {runtime_call}
[Exception Handler]
  0x00007f580d109b54: e8072cffff          call      7f580d0fc760h
                                                ;   {runtime_call}
  0x00007f580d109b59: 48896424d8          mov       qword ptr [rsp+0ffffffffffffffd8h],rsp
  0x00007f580d109b5e: 4881ec80000000      sub       rsp,80h
  0x00007f580d109b65: 4889442478          mov       qword ptr [rsp+78h],rax
  0x00007f580d109b6a: 48894c2470          mov       qword ptr [rsp+70h],rcx
  0x00007f580d109b6f: 4889542468          mov       qword ptr [rsp+68h],rdx
  0x00007f580d109b74: 48895c2460          mov       qword ptr [rsp+60h],rbx
  0x00007f580d109b79: 48896c2450          mov       qword ptr [rsp+50h],rbp
  0x00007f580d109b7e: 4889742448          mov       qword ptr [rsp+48h],rsi
  0x00007f580d109b83: 48897c2440          mov       qword ptr [rsp+40h],rdi
  0x00007f580d109b88: 4c89442438          mov       qword ptr [rsp+38h],r8
  0x00007f580d109b8d: 4c894c2430          mov       qword ptr [rsp+30h],r9
  0x00007f580d109b92: 4c89542428          mov       qword ptr [rsp+28h],r10
  0x00007f580d109b97: 4c895c2420          mov       qword ptr [rsp+20h],r11
  0x00007f580d109b9c: 4c89642418          mov       qword ptr [rsp+18h],r12
  0x00007f580d109ba1: 4c896c2410          mov       qword ptr [rsp+10h],r13
  0x00007f580d109ba6: 4c89742408          mov       qword ptr [rsp+8h],r14
  0x00007f580d109bab: 4c893c24            mov       qword ptr [rsp],r15
  0x00007f580d109baf: 48bff6598c23587f0000 mov       rdi,7f58238c59f6h
                                                ;   {external_word}
  0x00007f580d109bb9: 48be599b100d587f0000 mov       rsi,7f580d109b59h
                                                ;   {internal_word}
  0x00007f580d109bc3: 488bd4              mov       rdx,rsp
  0x00007f580d109bc6: 4883e4f0            and       rsp,0fffffffffffffff0h
  0x00007f580d109bca: e891f64b16          call      7f58235c9260h
                                                ;   {runtime_call}
  0x00007f580d109bcf: f4                  hlt
[Deopt Handler Code]
  0x00007f580d109bd0: 49bad09b100d587f0000 mov       r10,7f580d109bd0h
                                                ;   {section_word}
  0x00007f580d109bda: 4152                push      r10
  0x00007f580d109bdc: e91fd9f3ff          jmp       7f580d047500h
                                                ;   {runtime_call}
  0x00007f580d109be1: f4                  hlt
  0x00007f580d109be2: f4                  hlt
  0x00007f580d109be3: f4                  hlt
  0x00007f580d109be4: f4                  hlt
  0x00007f580d109be5: f4                  hlt
  0x00007f580d109be6: f4                  hlt
  0x00007f580d109be7: f4                  hlt
<nmethod compile_id='5' compiler='C1' level='3' entry='0x00007f580d109980' size='1376' address='0x00007f580d109810' relocation_offset='296' insts_offset='368' stub_offset='816' scopes_data_offset='992' scopes_pcs_offset='1096' dependencies_offset='1352' nul_chk_table_offset='1360' method='java/lang/String charAt (I)C' bytes='29' count='1938' iicount='1938' stamp='0.166'/>
Decoding compiled method 0x00007f580d109d90:
Code:
RIP: 0x7f580d109f00 Code size: 0x00000190
[Entry Point]
[Verified Entry Point]
[Constants]
   {method} {0x00007f580c8f67d8} &apos;min&apos; &apos;(II)I&apos; in &apos;java/lang/Math&apos;
   parm0:    rsi       = int
   parm1:    rdx       = int
             [sp+0x40]  (sp of caller)
  0x00007f580d109f00: 89842400c0feff      mov       dword ptr [rsp+0fffffffffffec000h],eax
  0x00007f580d109f07: 55                  push      rbp
  0x00007f580d109f08: 4883ec30            sub       rsp,30h
  0x00007f580d109f0c: 48b8e89f9c0c587f0000 mov       rax,7f580c9c9fe8h
                                                ;   {metadata(method data for {method} {0x00007f580c8f67d8} &apos;min&apos; &apos;(II)I&apos; in &apos;java/lang/Math&apos;)}
  0x00007f580d109f16: 8bb8dc000000        mov       edi,dword ptr [rax+0dch]
  0x00007f580d109f1c: 83c708              add       edi,8h
  0x00007f580d109f1f: 89b8dc000000        mov       dword ptr [rax+0dch],edi
  0x00007f580d109f25: 48b8d8678f0c587f0000 mov       rax,7f580c8f67d8h
                                                ;   {metadata({method} {0x00007f580c8f67d8} &apos;min&apos; &apos;(II)I&apos; in &apos;java/lang/Math&apos;)}
  0x00007f580d109f2f: 81e7f81f0000        and       edi,1ff8h
  0x00007f580d109f35: 83ff00              cmp       edi,0h
  0x00007f580d109f38: 0f845f000000        je        7f580d109f9dh
                                                ;*iload_0
                                                ; - java.lang.Math::min@0 (line 1336)

  0x00007f580d109f3e: 3bf2                cmp       esi,edx
  0x00007f580d109f40: 48b8e89f9c0c587f0000 mov       rax,7f580c9c9fe8h
                                                ;   {metadata(method data for {method} {0x00007f580c8f67d8} &apos;min&apos; &apos;(II)I&apos; in &apos;java/lang/Math&apos;)}
  0x00007f580d109f4a: 48bf0801000000000000 mov       rdi,108h
  0x00007f580d109f54: 0f8f0a000000        jnle      7f580d109f64h
  0x00007f580d109f5a: 48bf1801000000000000 mov       rdi,118h
  0x00007f580d109f64: 488b1c38            mov       rbx,qword ptr [rax+rdi]
  0x00007f580d109f68: 488d5b01            lea       rbx,[rbx+1h]
  0x00007f580d109f6c: 48891c38            mov       qword ptr [rax+rdi],rbx
  0x00007f580d109f70: 0f8f15000000        jnle      7f580d109f8bh
                                                ;*if_icmpgt
                                                ; - java.lang.Math::min@2 (line 1336)

  0x00007f580d109f76: 48b8e89f9c0c587f0000 mov       rax,7f580c9c9fe8h
                                                ;   {metadata(method data for {method} {0x00007f580c8f67d8} &apos;min&apos; &apos;(II)I&apos; in &apos;java/lang/Math&apos;)}
  0x00007f580d109f80: ff8028010000        inc       dword ptr [rax+128h]
  0x00007f580d109f86: e903000000          jmp       7f580d109f8eh
                                                ;*goto
                                                ; - java.lang.Math::min@6 (line 1336)

  0x00007f580d109f8b: 488bf2              mov       rsi,rdx
                                                ;*ireturn
                                                ; - java.lang.Math::min@10 (line 1336)

  0x00007f580d109f8e: 488bc6              mov       rax,rsi
  0x00007f580d109f91: 4883c430            add       rsp,30h
  0x00007f580d109f95: 5d                  pop       rbp
  0x00007f580d109f96: 850564918d17        test      dword ptr [7f58249e3100h],eax
                                                ;   {poll_return}
  0x00007f580d109f9c: c3                  ret
  0x00007f580d109f9d: 4889442408          mov       qword ptr [rsp+8h],rax
  0x00007f580d109fa2: 48c70424ffffffff    mov       qword ptr [rsp],0ffffffffffffffffh
  0x00007f580d109faa: e8714fffff          call      7f580d0fef20h
                                                ; OopMap{off=175}
                                                ;*synchronization entry
                                                ; - java.lang.Math::min@-1 (line 1336)
                                                ;   {runtime_call}
  0x00007f580d109faf: eb8d                jmp       7f580d109f3eh
  0x00007f580d109fb1: 90                  nop
  0x00007f580d109fb2: 90                  nop
  0x00007f580d109fb3: 498b87a8020000      mov       rax,qword ptr [r15+2a8h]
  0x00007f580d109fba: 49ba0000000000000000 mov       r10,0h
  0x00007f580d109fc4: 4d8997a8020000      mov       qword ptr [r15+2a8h],r10
  0x00007f580d109fcb: 49ba0000000000000000 mov       r10,0h
  0x00007f580d109fd5: 4d8997b0020000      mov       qword ptr [r15+2b0h],r10
  0x00007f580d109fdc: 4883c430            add       rsp,30h
  0x00007f580d109fe0: 5d                  pop       rbp
  0x00007f580d109fe1: e97a54f6ff          jmp       7f580d06f460h
                                                ;   {runtime_call}
  0x00007f580d109fe6: f4                  hlt
  0x00007f580d109fe7: f4                  hlt
  0x00007f580d109fe8: f4                  hlt
  0x00007f580d109fe9: f4                  hlt
  0x00007f580d109fea: f4                  hlt
  0x00007f580d109feb: f4                  hlt
  0x00007f580d109fec: f4                  hlt
  0x00007f580d109fed: f4                  hlt
  0x00007f580d109fee: f4                  hlt
  0x00007f580d109fef: f4                  hlt
  0x00007f580d109ff0: f4                  hlt
  0x00007f580d109ff1: f4                  hlt
  0x00007f580d109ff2: f4                  hlt
  0x00007f580d109ff3: f4                  hlt
  0x00007f580d109ff4: f4                  hlt
  0x00007f580d109ff5: f4                  hlt
  0x00007f580d109ff6: f4                  hlt
  0x00007f580d109ff7: f4                  hlt
  0x00007f580d109ff8: f4                  hlt
  0x00007f580d109ff9: f4                  hlt
  0x00007f580d109ffa: f4                  hlt
  0x00007f580d109ffb: f4                  hlt
  0x00007f580d109ffc: f4                  hlt
  0x00007f580d109ffd: f4                  hlt
  0x00007f580d109ffe: f4                  hlt
  0x00007f580d109fff: f4                  hlt
[Exception Handler]
[Stub Code]
  0x00007f580d10a000: e85b27ffff          call      7f580d0fc760h
                                                ;   {no_reloc}
  0x00007f580d10a005: 48896424d8          mov       qword ptr [rsp+0ffffffffffffffd8h],rsp
  0x00007f580d10a00a: 4881ec80000000      sub       rsp,80h
  0x00007f580d10a011: 4889442478          mov       qword ptr [rsp+78h],rax
  0x00007f580d10a016: 48894c2470          mov       qword ptr [rsp+70h],rcx
  0x00007f580d10a01b: 4889542468          mov       qword ptr [rsp+68h],rdx
  0x00007f580d10a020: 48895c2460          mov       qword ptr [rsp+60h],rbx
  0x00007f580d10a025: 48896c2450          mov       qword ptr [rsp+50h],rbp
  0x00007f580d10a02a: 4889742448          mov       qword ptr [rsp+48h],rsi
  0x00007f580d10a02f: 48897c2440          mov       qword ptr [rsp+40h],rdi
  0x00007f580d10a034: 4c89442438          mov       qword ptr [rsp+38h],r8
  0x00007f580d10a039: 4c894c2430          mov       qword ptr [rsp+30h],r9
  0x00007f580d10a03e: 4c89542428          mov       qword ptr [rsp+28h],r10
  0x00007f580d10a043: 4c895c2420          mov       qword ptr [rsp+20h],r11
  0x00007f580d10a048: 4c89642418          mov       qword ptr [rsp+18h],r12
  0x00007f580d10a04d: 4c896c2410          mov       qword ptr [rsp+10h],r13
  0x00007f580d10a052: 4c89742408          mov       qword ptr [rsp+8h],r14
  0x00007f580d10a057: 4c893c24            mov       qword ptr [rsp],r15
  0x00007f580d10a05b: 48bff6598c23587f0000 mov       rdi,7f58238c59f6h
                                                ;   {external_word}
  0x00007f580d10a065: 48be05a0100d587f0000 mov       rsi,7f580d10a005h
                                                ;   {internal_word}
  0x00007f580d10a06f: 488bd4              mov       rdx,rsp
  0x00007f580d10a072: 4883e4f0            and       rsp,0fffffffffffffff0h
  0x00007f580d10a076: e8e5f14b16          call      7f58235c9260h
                                                ;   {runtime_call}
  0x00007f580d10a07b: f4                  hlt
[Deopt Handler Code]
  0x00007f580d10a07c: 49ba7ca0100d587f0000 mov       r10,7f580d10a07ch
                                                ;   {section_word}
  0x00007f580d10a086: 4152                push      r10
  0x00007f580d10a088: e973d4f3ff          jmp       7f580d047500h
                                                ;   {runtime_call}
  0x00007f580d10a08d: f4                  hlt
  0x00007f580d10a08e: f4                  hlt
  0x00007f580d10a08f: f4                  hlt
<nmethod compile_id='6' compiler='C1' level='3' entry='0x00007f580d109f00' size='936' address='0x00007f580d109d90' relocation_offset='296' insts_offset='368' stub_offset='624' scopes_data_offset='776' scopes_pcs_offset='816' dependencies_offset='928' method='java/lang/Math min (II)I' bytes='11' count='654' iicount='654' stamp='0.181'/>
<writer thread='140016548087552'/>
Decoding compiled method 0x00007f580d10a950:
Code:
RIP: 0x7f580d10aac0 Code size: 0x00000208
[Entry Point]
   {method} {0x00007f580c819930} &apos;arraycopy&apos; &apos;(Ljava/lang/Object;ILjava/lang/Object;II)V&apos; in &apos;java/lang/System&apos;
   parm0:    rsi:rsi   = &apos;java/lang/Object&apos;
   parm1:    rdx       = int
   parm2:    rcx:rcx   = &apos;java/lang/Object&apos;
   parm3:    r8        = int
   parm4:    r9        = int
             [sp+0x60]  (sp of caller)
  0x00007f580d10aac0: 448b5608            mov       r10d,dword ptr [rsi+8h]
  0x00007f580d10aac4: 49c1e203            shl       r10,3h
  0x00007f580d10aac8: 493bc2              cmp       rax,r10
  0x00007f580d10aacb: 0f8407000000        je        7f580d10aad8h
  0x00007f580d10aad1: e98ab3f3ff          jmp       7f580d045e60h
                                                ;   {runtime_call}
  0x00007f580d10aad6: 6690                nop
[Verified Entry Point]
  0x00007f580d10aad8: 89842400c0feff      mov       dword ptr [rsp+0fffffffffffec000h],eax
  0x00007f580d10aadf: 55                  push      rbp
  0x00007f580d10aae0: 488bec              mov       rbp,rsp
  0x00007f580d10aae3: 4883ec50            sub       rsp,50h
  0x00007f580d10aae7: 4c890c24            mov       qword ptr [rsp],r9
  0x00007f580d10aaeb: 4d8bc8              mov       r9,r8
  0x00007f580d10aaee: 48894c2418          mov       qword ptr [rsp+18h],rcx
  0x00007f580d10aaf3: 4883f900            cmp       rcx,0h
  0x00007f580d10aaf7: 4c8d442418          lea       r8,[rsp+18h]
  0x00007f580d10aafc: 4c0f44442418        cmove     r8,qword ptr [rsp+18h]
  0x00007f580d10ab02: 488bca              mov       rcx,rdx
  0x00007f580d10ab05: 4889742408          mov       qword ptr [rsp+8h],rsi
  0x00007f580d10ab0a: 4883fe00            cmp       rsi,0h
  0x00007f580d10ab0e: 488d542408          lea       rdx,[rsp+8h]
  0x00007f580d10ab13: 480f44542408        cmove     rdx,qword ptr [rsp+8h]
  0x00007f580d10ab19: 49be780c388c07000000 mov       r14,78c380c78h
                                                ;   {oop(a &apos;java/lang/Class&apos; = &apos;java/lang/System&apos;)}
  0x00007f580d10ab23: 4c89742438          mov       qword ptr [rsp+38h],r14
  0x00007f580d10ab28: 4c8d742438          lea       r14,[rsp+38h]
  0x00007f580d10ab2d: 498bf6              mov       rsi,r14
                                                ; OopMap{[24]=Oop [8]=Oop [56]=Oop off=112}
  0x00007f580d10ab30: 49ba30ab100d587f0000 mov       r10,7f580d10ab30h
                                                ;   {section_word}
  0x00007f580d10ab3a: 4d8997e0010000      mov       qword ptr [r15+1e0h],r10
  0x00007f580d10ab41: 4989a7d8010000      mov       qword ptr [r15+1d8h],rsp
  0x00007f580d10ab48: 803db5a3c51600      cmp       byte ptr [7f5823d64f04h],0h
                                                ;   {external_word}
  0x00007f580d10ab4f: 0f843e000000        je        7f580d10ab93h
  0x00007f580d10ab55: 56                  push      rsi
  0x00007f580d10ab56: 52                  push      rdx
  0x00007f580d10ab57: 51                  push      rcx
  0x00007f580d10ab58: 4150                push      r8
  0x00007f580d10ab5a: 4151                push      r9
  0x00007f580d10ab5c: 48be3099810c587f0000 mov       rsi,7f580c819930h
                                                ;   {metadata({method} {0x00007f580c819930} &apos;arraycopy&apos; &apos;(Ljava/lang/Object;ILjava/lang/Object;II)V&apos; in &apos;java/lang/System&apos;)}
  0x00007f580d10ab66: 498bff              mov       rdi,r15
  0x00007f580d10ab69: f7c40f000000        test      esp,0fh
  0x00007f580d10ab6f: 0f8412000000        je        7f580d10ab87h
  0x00007f580d10ab75: 4883ec08            sub       rsp,8h
  0x00007f580d10ab79: e892036616          call      7f582376af10h
                                                ;   {runtime_call}
  0x00007f580d10ab7e: 4883c408            add       rsp,8h
  0x00007f580d10ab82: e905000000          jmp       7f580d10ab8ch
  0x00007f580d10ab87: e884036616          call      7f582376af10h
                                                ;   {runtime_call}
  0x00007f580d10ab8c: 4159                pop       r9
  0x00007f580d10ab8e: 4158                pop       r8
  0x00007f580d10ab90: 59                  pop       rcx
  0x00007f580d10ab91: 5a                  pop       rdx
  0x00007f580d10ab92: 5e                  pop       rsi
  0x00007f580d10ab93: 498dbff8010000      lea       rdi,[r15+1f8h]
  0x00007f580d10ab9a: 41c7877002000004000000 mov       dword ptr [r15+270h],4h
  0x00007f580d10aba5: e8b61f3916          call      7f582349cb60h
                                                ;   {runtime_call}
  0x00007f580d10abaa: c5f877              vzeroupper
  0x00007f580d10abad: 41c7877002000005000000 mov       dword ptr [r15+270h],5h
  0x00007f580d10abb8: 418bcf              mov       ecx,r15d
  0x00007f580d10abbb: c1e904              shr       ecx,4h
  0x00007f580d10abbe: 81e1fc0f0000        and       ecx,0ffch
  0x00007f580d10abc4: 49ba00209e24587f0000 mov       r10,7f58249e2000h
                                                ;   {external_word}
  0x00007f580d10abce: 41890c0a            mov       dword ptr [r10+rcx],ecx
  0x00007f580d10abd2: 813d28a3c61600000000 cmp       dword ptr [7f5823d74f04h],0h
                                                ;   {external_word}
  0x00007f580d10abdc: 0f850e000000        jne       7f580d10abf0h
  0x00007f580d10abe2: 41817f3000000000    cmp       dword ptr [r15+30h],0h
  0x00007f580d10abea: 0f8419000000        je        7f580d10ac09h
  0x00007f580d10abf0: 498bff              mov       rdi,r15
  0x00007f580d10abf3: 4c8be4              mov       r12,rsp
  0x00007f580d10abf6: 4883ec00            sub       rsp,0h
  0x00007f580d10abfa: 4883e4f0            and       rsp,0fffffffffffffff0h
  0x00007f580d10abfe: e8ddfc7016          call      7f582381a8e0h
                                                ;   {runtime_call}
  0x00007f580d10ac03: 498be4              mov       rsp,r12
  0x00007f580d10ac06: 4d33e4              xor       r12,r12
  0x00007f580d10ac09: 41c7877002000008000000 mov       dword ptr [r15+270h],8h
  0x00007f580d10ac14: 4181bf9c02000001000000 cmp       dword ptr [r15+29ch],1h
  0x00007f580d10ac1f: 0f8482000000        je        7f580d10aca7h
  0x00007f580d10ac25: 803dd8a2c51600      cmp       byte ptr [7f5823d64f04h],0h
                                                ;   {external_word}
  0x00007f580d10ac2c: 0f8430000000        je        7f580d10ac62h
  0x00007f580d10ac32: 48be3099810c587f0000 mov       rsi,7f580c819930h
                                                ;   {metadata({method} {0x00007f580c819930} &apos;arraycopy&apos; &apos;(Ljava/lang/Object;ILjava/lang/Object;II)V&apos; in &apos;java/lang/System&apos;)}
  0x00007f580d10ac3c: 498bff              mov       rdi,r15
  0x00007f580d10ac3f: f7c40f000000        test      esp,0fh
  0x00007f580d10ac45: 0f8412000000        je        7f580d10ac5dh
  0x00007f580d10ac4b: 4883ec08            sub       rsp,8h
  0x00007f580d10ac4f: e8cc026616          call      7f582376af20h
                                                ;   {runtime_call}
  0x00007f580d10ac54: 4883c408            add       rsp,8h
  0x00007f580d10ac58: e905000000          jmp       7f580d10ac62h
  0x00007f580d10ac5d: e8be026616          call      7f582376af20h
                                                ;   {runtime_call}
  0x00007f580d10ac62: 49ba0000000000000000 mov       r10,0h
  0x00007f580d10ac6c: 4d8997d8010000      mov       qword ptr [r15+1d8h],r10
  0x00007f580d10ac73: 49ba0000000000000000 mov       r10,0h
  0x00007f580d10ac7d: 4d8997e0010000      mov       qword ptr [r15+1e0h],r10
  0x00007f580d10ac84: 498b4f38            mov       rcx,qword ptr [r15+38h]
  0x00007f580d10ac88: c7810001000000000000 mov       dword ptr [rcx+100h],0h
  0x00007f580d10ac92: c9                  leave
  0x00007f580d10ac93: 49817f0800000000    cmp       qword ptr [r15+8h],0h
  0x00007f580d10ac9b: 0f8501000000        jne       7f580d10aca2h
  0x00007f580d10aca1: c3                  ret
  0x00007f580d10aca2: e9395aefff          jmp       7f580d0006e0h
                                                ;   {runtime_call}
  0x00007f580d10aca7: 4c8be4              mov       r12,rsp
  0x00007f580d10acaa: 4883ec00            sub       rsp,0h
  0x00007f580d10acae: 4883e4f0            and       rsp,0fffffffffffffff0h
  0x00007f580d10acb2: e839886616          call      7f58237734f0h
                                                ;   {runtime_call}
  0x00007f580d10acb7: 498be4              mov       rsp,r12
  0x00007f580d10acba: 4d33e4              xor       r12,r12
  0x00007f580d10acbd: e963ffffff          jmp       7f580d10ac25h
  0x00007f580d10acc2: f4                  hlt
  0x00007f580d10acc3: f4                  hlt
  0x00007f580d10acc4: f4                  hlt
  0x00007f580d10acc5: f4                  hlt
  0x00007f580d10acc6: f4                  hlt
  0x00007f580d10acc7: f4                  hlt
<writer thread='140016054187776'/>
Decoding compiled method 0x00007f580d10ad10:
Code:
RIP: 0x7f580d10ae80 Code size: 0x00000170
<writer thread='140016548087552'/>
<nmethod compile_id='7' compile_kind='c2n' level='0' entry='0x00007f580d10aac0' size='888' address='0x00007f580d10a950' relocation_offset='296' consts_offset='888' insts_offset='368' method='java/lang/System arraycopy (Ljava/lang/Object;ILjava/lang/Object;II)V' bytes='0' count='640' iicount='640' stamp='0.213'/>
<writer thread='140016054187776'/>

[Entry Point]
[Constants]
   {method} {0x00007f580c803c60} &apos;length&apos; &apos;()I&apos; in &apos;java/lang/String&apos;
             [sp+0x40]  (sp of caller)
  0x00007f580d10ae80: 448b5608            mov       r10d,dword ptr [rsi+8h]
  0x00007f580d10ae84: 49c1e203            shl       r10,3h
  0x00007f580d10ae88: 4c3bd0              cmp       r10,rax
  0x00007f580d10ae8b: 0f85cfaff3ff        jne       7f580d045e60h
                                                ;   {runtime_call}
  0x00007f580d10ae91: 6666660f1f840000000000 nop       word ptr [rax+rax+0h]
  0x00007f580d10ae9c: 66666690            nop
[Verified Entry Point]
  0x00007f580d10aea0: 89842400c0feff      mov       dword ptr [rsp+0fffffffffffec000h],eax
  0x00007f580d10aea7: 55                  push      rbp
  0x00007f580d10aea8: 4883ec30            sub       rsp,30h
  0x00007f580d10aeac: 48b8a814a00c587f0000 mov       rax,7f580ca014a8h
                                                ;   {metadata(method data for {method} {0x00007f580c803c60} &apos;length&apos; &apos;()I&apos; in &apos;java/lang/String&apos;)}
  0x00007f580d10aeb6: 8bb8dc000000        mov       edi,dword ptr [rax+0dch]
  0x00007f580d10aebc: 83c708              add       edi,8h
  0x00007f580d10aebf: 89b8dc000000        mov       dword ptr [rax+0dch],edi
  0x00007f580d10aec5: 48b8603c800c587f0000 mov       rax,7f580c803c60h
                                                ;   {metadata({method} {0x00007f580c803c60} &apos;length&apos; &apos;()I&apos; in &apos;java/lang/String&apos;)}
  0x00007f580d10aecf: 81e7f81f0000        and       edi,1ff8h
  0x00007f580d10aed5: 83ff00              cmp       edi,0h
  0x00007f580d10aed8: 0f8416000000        je        7f580d10aef4h
                                                ;*aload_0
                                                ; - java.lang.String::length@0 (line 623)

  0x00007f580d10aede: 8b460c              mov       eax,dword ptr [rsi+0ch]
  0x00007f580d10aee1: 48c1e003            shl       rax,3h
                                                ;*getfield value
                                                ; - java.lang.String::length@1 (line 623)

  0x00007f580d10aee5: 8b400c              mov       eax,dword ptr [rax+0ch]
                                                ;*arraylength
                                                ; - java.lang.String::length@4 (line 623)
                                                ; implicit exception: dispatches to 0x00007f580d10af08
  0x00007f580d10aee8: 4883c430            add       rsp,30h
  0x00007f580d10aeec: 5d                  pop       rbp
  0x00007f580d10aeed: 85050d828d17        test      dword ptr [7f58249e3100h],eax
                                                ;   {poll_return}
  0x00007f580d10aef3: c3                  ret
  0x00007f580d10aef4: 4889442408          mov       qword ptr [rsp+8h],rax
  0x00007f580d10aef9: 48c70424ffffffff    mov       qword ptr [rsp],0ffffffffffffffffh
  0x00007f580d10af01: e81a40ffff          call      7f580d0fef20h
                                                ; OopMap{rsi=Oop off=134}
                                                ;*synchronization entry
                                                ; - java.lang.String::length@-1 (line 623)
                                                ;   {runtime_call}
  0x00007f580d10af06: ebd6                jmp       7f580d10aedeh
  0x00007f580d10af08: e8f339f6ff          call      7f580d06e900h
                                                ; OopMap{off=141}
                                                ;*arraylength
                                                ; - java.lang.String::length@4 (line 623)
                                                ;   {runtime_call}
  0x00007f580d10af0d: 90                  nop
  0x00007f580d10af0e: 90                  nop
  0x00007f580d10af0f: 498b87a8020000      mov       rax,qword ptr [r15+2a8h]
  0x00007f580d10af16: 49ba0000000000000000 mov       r10,0h
  0x00007f580d10af20: 4d8997a8020000      mov       qword ptr [r15+2a8h],r10
  0x00007f580d10af27: 49ba0000000000000000 mov       r10,0h
  0x00007f580d10af31: 4d8997b0020000      mov       qword ptr [r15+2b0h],r10
  0x00007f580d10af38: 4883c430            add       rsp,30h
  0x00007f580d10af3c: 5d                  pop       rbp
  0x00007f580d10af3d: e91e45f6ff          jmp       7f580d06f460h
                                                ;   {runtime_call}
  0x00007f580d10af42: f4                  hlt
  0x00007f580d10af43: f4                  hlt
  0x00007f580d10af44: f4                  hlt
  0x00007f580d10af45: f4                  hlt
  0x00007f580d10af46: f4                  hlt
  0x00007f580d10af47: f4                  hlt
  0x00007f580d10af48: f4                  hlt
  0x00007f580d10af49: f4                  hlt
  0x00007f580d10af4a: f4                  hlt
  0x00007f580d10af4b: f4                  hlt
  0x00007f580d10af4c: f4                  hlt
  0x00007f580d10af4d: f4                  hlt
  0x00007f580d10af4e: f4                  hlt
  0x00007f580d10af4f: f4                  hlt
  0x00007f580d10af50: f4                  hlt
  0x00007f580d10af51: f4                  hlt
  0x00007f580d10af52: f4                  hlt
  0x00007f580d10af53: f4                  hlt
  0x00007f580d10af54: f4                  hlt
  0x00007f580d10af55: f4                  hlt
  0x00007f580d10af56: f4                  hlt
  0x00007f580d10af57: f4                  hlt
  0x00007f580d10af58: f4                  hlt
  0x00007f580d10af59: f4                  hlt
  0x00007f580d10af5a: f4                  hlt
  0x00007f580d10af5b: f4                  hlt
  0x00007f580d10af5c: f4                  hlt
  0x00007f580d10af5d: f4                  hlt
  0x00007f580d10af5e: f4                  hlt
  0x00007f580d10af5f: f4                  hlt
[Exception Handler]
[Stub Code]
  0x00007f580d10af60: e8fb17ffff          call      7f580d0fc760h
                                                ;   {no_reloc}
  0x00007f580d10af65: 48896424d8          mov       qword ptr [rsp+0ffffffffffffffd8h],rsp
  0x00007f580d10af6a: 4881ec80000000      sub       rsp,80h
  0x00007f580d10af71: 4889442478          mov       qword ptr [rsp+78h],rax
  0x00007f580d10af76: 48894c2470          mov       qword ptr [rsp+70h],rcx
  0x00007f580d10af7b: 4889542468          mov       qword ptr [rsp+68h],rdx
  0x00007f580d10af80: 48895c2460          mov       qword ptr [rsp+60h],rbx
  0x00007f580d10af85: 48896c2450          mov       qword ptr [rsp+50h],rbp
  0x00007f580d10af8a: 4889742448          mov       qword ptr [rsp+48h],rsi
  0x00007f580d10af8f: 48897c2440          mov       qword ptr [rsp+40h],rdi
  0x00007f580d10af94: 4c89442438          mov       qword ptr [rsp+38h],r8
  0x00007f580d10af99: 4c894c2430          mov       qword ptr [rsp+30h],r9
  0x00007f580d10af9e: 4c89542428          mov       qword ptr [rsp+28h],r10
  0x00007f580d10afa3: 4c895c2420          mov       qword ptr [rsp+20h],r11
  0x00007f580d10afa8: 4c89642418          mov       qword ptr [rsp+18h],r12
  0x00007f580d10afad: 4c896c2410          mov       qword ptr [rsp+10h],r13
  0x00007f580d10afb2: 4c89742408          mov       qword ptr [rsp+8h],r14
  0x00007f580d10afb7: 4c893c24            mov       qword ptr [rsp],r15
  0x00007f580d10afbb: 48bff6598c23587f0000 mov       rdi,7f58238c59f6h
                                                ;   {external_word}
  0x00007f580d10afc5: 48be65af100d587f0000 mov       rsi,7f580d10af65h
                                                ;   {internal_word}
  0x00007f580d10afcf: 488bd4              mov       rdx,rsp
  0x00007f580d10afd2: 4883e4f0            and       rsp,0fffffffffffffff0h
  0x00007f580d10afd6: e885e24b16          call      7f58235c9260h
                                                ;   {runtime_call}
  0x00007f580d10afdb: f4                  hlt
[Deopt Handler Code]
  0x00007f580d10afdc: 49badcaf100d587f0000 mov       r10,7f580d10afdch
                                                ;   {section_word}
  0x00007f580d10afe6: 4152                push      r10
  0x00007f580d10afe8: e913c5f3ff          jmp       7f580d047500h
                                                ;   {runtime_call}
  0x00007f580d10afed: f4                  hlt
  0x00007f580d10afee: f4                  hlt
  0x00007f580d10afef: f4                  hlt
<nmethod compile_id='4' compiler='C1' level='3' entry='0x00007f580d10ae80' size='920' address='0x00007f580d10ad10' relocation_offset='296' insts_offset='368' stub_offset='592' scopes_data_offset='744' scopes_pcs_offset='784' dependencies_offset='896' nul_chk_table_offset='904' method='java/lang/String length ()I' bytes='6' count='500' iicount='500' stamp='0.224'/>
<writer thread='140016548087552'/>
<task_queued compile_id='8' method='java/lang/AbstractStringBuilder ensureCapacityInternal (I)V' bytes='27' count='256' iicount='256' level='3' stamp='0.224' comment='tiered' hot_count='256'/>
<task_queued compile_id='9' method='java/lang/String indexOf (II)I' bytes='70' count='176' backedge_count='4096' iicount='176' level='3' stamp='0.224' comment='tiered' hot_count='176'/>
<writer thread='140016054187776'/>
Decoding compiled method 0x00007f580d10b0d0:
Code:
RIP: 0x7f580d10b260 Code size: 0x00000478
[Entry Point]
[Constants]
   {method} {0x00007f580c8754e0} &apos;ensureCapacityInternal&apos; &apos;(I)V&apos; in &apos;java/lang/AbstractStringBuilder&apos;
   this:     rsi:rsi   = &apos;java/lang/AbstractStringBuilder&apos;
   parm0:    rdx       = int
             [sp+0xb0]  (sp of caller)
  0x00007f580d10b260: 448b5608            mov       r10d,dword ptr [rsi+8h]
  0x00007f580d10b264: 49c1e203            shl       r10,3h
  0x00007f580d10b268: 4c3bd0              cmp       r10,rax
  0x00007f580d10b26b: 0f85efabf3ff        jne       7f580d045e60h
                                                ;   {runtime_call}
  0x00007f580d10b271: 6666660f1f840000000000 nop       word ptr [rax+rax+0h]
  0x00007f580d10b27c: 66666690            nop
[Verified Entry Point]
  0x00007f580d10b280: 89842400c0feff      mov       dword ptr [rsp+0fffffffffffec000h],eax
  0x00007f580d10b287: 55                  push      rbp
  0x00007f580d10b288: 4881eca0000000      sub       rsp,0a0h
  0x00007f580d10b28f: 48bf0818a00c587f0000 mov       rdi,7f580ca01808h
                                                ;   {metadata(method data for {method} {0x00007f580c8754e0} &apos;ensureCapacityInternal&apos; &apos;(I)V&apos; in &apos;java/lang/AbstractStringBuilder&apos;)}
  0x00007f580d10b299: 8b9fdc000000        mov       ebx,dword ptr [rdi+0dch]
  0x00007f580d10b29f: 83c308              add       ebx,8h
  0x00007f580d10b2a2: 899fdc000000        mov       dword ptr [rdi+0dch],ebx
  0x00007f580d10b2a8: 48bfe054870c587f0000 mov       rdi,7f580c8754e0h
                                                ;   {metadata({method} {0x00007f580c8754e0} &apos;ensureCapacityInternal&apos; &apos;(I)V&apos; in &apos;java/lang/AbstractStringBuilder&apos;)}
  0x00007f580d10b2b2: 81e3f81f0000        and       ebx,1ff8h
  0x00007f580d10b2b8: 83fb00              cmp       ebx,0h
  0x00007f580d10b2bb: 0f84ae020000        je        7f580d10b56fh
                                                ;*iload_1
                                                ; - java.lang.AbstractStringBuilder::ensureCapacityInternal@0 (line 123)

  0x00007f580d10b2c1: 8b7e10              mov       edi,dword ptr [rsi+10h]
  0x00007f580d10b2c4: 48c1e703            shl       rdi,3h
                                                ;*getfield value
                                                ; - java.lang.AbstractStringBuilder::ensureCapacityInternal@2 (line 123)

  0x00007f580d10b2c8: 8b5f0c              mov       ebx,dword ptr [rdi+0ch]
                                                ;*arraylength
                                                ; - java.lang.AbstractStringBuilder::ensureCapacityInternal@5 (line 123)
                                                ; implicit exception: dispatches to 0x00007f580d10b586
  0x00007f580d10b2cb: 488bc2              mov       rax,rdx
  0x00007f580d10b2ce: 2bc3                sub       eax,ebx
  0x00007f580d10b2d0: 83f800              cmp       eax,0h
  0x00007f580d10b2d3: 48b80818a00c587f0000 mov       rax,7f580ca01808h
                                                ;   {metadata(method data for {method} {0x00007f580c8754e0} &apos;ensureCapacityInternal&apos; &apos;(I)V&apos; in &apos;java/lang/AbstractStringBuilder&apos;)}
  0x00007f580d10b2dd: 48b90801000000000000 mov       rcx,108h
  0x00007f580d10b2e7: 0f8e0a000000        jle       7f580d10b2f7h
  0x00007f580d10b2ed: 48b91801000000000000 mov       rcx,118h
  0x00007f580d10b2f7: 4c8b0408            mov       r8,qword ptr [rax+rcx]
  0x00007f580d10b2fb: 4d8d4001            lea       r8,[r8+1h]
  0x00007f580d10b2ff: 4c890408            mov       qword ptr [rax+rcx],r8
  0x00007f580d10b303: 0f8e57020000        jle       7f580d10b560h
                                                ;*ifle
                                                ; - java.lang.AbstractStringBuilder::ensureCapacityInternal@7 (line 123)

  0x00007f580d10b309: 895c2478            mov       dword ptr [rsp+78h],ebx
  0x00007f580d10b30d: 4889bc2480000000    mov       qword ptr [rsp+80h],rdi
  0x00007f580d10b315: 488bc6              mov       rax,rsi
  0x00007f580d10b318: 48b90818a00c587f0000 mov       rcx,7f580ca01808h
                                                ;   {metadata(method data for {method} {0x00007f580c8754e0} &apos;ensureCapacityInternal&apos; &apos;(I)V&apos; in &apos;java/lang/AbstractStringBuilder&apos;)}
  0x00007f580d10b322: 4883812801000001    add       qword ptr [rcx+128h],1h
  0x00007f580d10b32a: 488bc6              mov       rax,rsi
  0x00007f580d10b32d: 488bf0              mov       rsi,rax
                                                ;*invokespecial newCapacity
                                                ; - java.lang.AbstractStringBuilder::ensureCapacityInternal@17 (line 125)

  0x00007f580d10b330: 4889842488000000    mov       qword ptr [rsp+88h],rax
  0x00007f580d10b338: 90                  nop
  0x00007f580d10b339: 90                  nop
  0x00007f580d10b33a: 90                  nop
  0x00007f580d10b33b: 90                  nop
  0x00007f580d10b33c: 90                  nop
  0x00007f580d10b33d: 90                  nop
  0x00007f580d10b33e: 90                  nop
  0x00007f580d10b33f: e85cadf3ff          call      7f580d0460a0h
                                                ; OopMap{[136]=Oop [128]=Oop off=228}
                                                ;*invokespecial newCapacity
                                                ; - java.lang.AbstractStringBuilder::ensureCapacityInternal@17 (line 125)
                                                ;   {optimized virtual_call}
  0x00007f580d10b344: 4c8bc0              mov       r8,rax
                                                ;*invokespecial newCapacity
                                                ; - java.lang.AbstractStringBuilder::ensureCapacityInternal@17 (line 125)

  0x00007f580d10b347: 48bb0818a00c587f0000 mov       rbx,7f580ca01808h
                                                ;   {metadata(method data for {method} {0x00007f580c8754e0} &apos;ensureCapacityInternal&apos; &apos;(I)V&apos; in &apos;java/lang/AbstractStringBuilder&apos;)}
  0x00007f580d10b351: 4883833801000001    add       qword ptr [rbx+138h],1h
  0x00007f580d10b359: 48bb481ba00c587f0000 mov       rbx,7f580ca01b48h
                                                ;   {metadata(method data for {method} {0x00007f580c91af20} &apos;copyOf&apos; &apos;([CI)[C&apos; in &apos;java/util/Arrays&apos;)}
  0x00007f580d10b363: 8b93dc000000        mov       edx,dword ptr [rbx+0dch]
  0x00007f580d10b369: 83c208              add       edx,8h
  0x00007f580d10b36c: 8993dc000000        mov       dword ptr [rbx+0dch],edx
  0x00007f580d10b372: 48bb20af910c587f0000 mov       rbx,7f580c91af20h
                                                ;   {metadata({method} {0x00007f580c91af20} &apos;copyOf&apos; &apos;([CI)[C&apos; in &apos;java/util/Arrays&apos;)}
  0x00007f580d10b37c: 81e2f8ff7f00        and       edx,7ffff8h
  0x00007f580d10b382: 83fa00              cmp       edx,0h
  0x00007f580d10b385: 0f8400020000        je        7f580d10b58bh
  0x00007f580d10b38b: 498bd8              mov       rbx,r8
  0x00007f580d10b38e: 48ba080200c007000000 mov       rdx,7c0000208h
                                                ;   {metadata({type array char})}
  0x00007f580d10b398: 4863db              movsxd    rbx,ebx
  0x00007f580d10b39b: 488bfb              mov       rdi,rbx
  0x00007f580d10b39e: 4881fbffffff00      cmp       rbx,0ffffffh
  0x00007f580d10b3a5: 0f87f7010000        jnbe      7f580d10b5a2h
  0x00007f580d10b3ab: 48be1700000000000000 mov       rsi,17h
  0x00007f580d10b3b5: 488d345e            lea       rsi,[rsi+rbx*2]
  0x00007f580d10b3b9: 4883e6f8            and       rsi,0fffffffffffffff8h
  0x00007f580d10b3bd: 498b4760            mov       rax,qword ptr [r15+60h]
  0x00007f580d10b3c1: 488d3430            lea       rsi,[rax+rsi]
  0x00007f580d10b3c5: 493b7770            cmp       rsi,qword ptr [r15+70h]
  0x00007f580d10b3c9: 0f87d3010000        jnbe      7f580d10b5a2h
  0x00007f580d10b3cf: 49897760            mov       qword ptr [r15+60h],rsi
  0x00007f580d10b3d3: 482bf0              sub       rsi,rax
  0x00007f580d10b3d6: 48c70001000000      mov       qword ptr [rax],1h
  0x00007f580d10b3dd: 488bca              mov       rcx,rdx
  0x00007f580d10b3e0: 48c1e903            shr       rcx,3h
  0x00007f580d10b3e4: 894808              mov       dword ptr [rax+8h],ecx
  0x00007f580d10b3e7: 89580c              mov       dword ptr [rax+0ch],ebx
  0x00007f580d10b3ea: 4883ee10            sub       rsi,10h
  0x00007f580d10b3ee: 0f8411000000        je        7f580d10b405h
  0x00007f580d10b3f4: 4833db              xor       rbx,rbx
  0x00007f580d10b3f7: 48c1ee03            shr       rsi,3h
  0x00007f580d10b3fb: 48895cf008          mov       qword ptr [rax+rsi*8+8h],rbx
  0x00007f580d10b400: 48ffce              dec       rsi
  0x00007f580d10b403: 75f6                jne       7f580d10b3fbh
                                                ;*newarray
                                                ; - java.util.Arrays::copyOf@1 (line 3332)
                                                ; - java.lang.AbstractStringBuilder::ensureCapacityInternal@20 (line 124)

  0x00007f580d10b405: 48be481ba00c587f0000 mov       rsi,7f580ca01b48h
                                                ;   {metadata(method data for {method} {0x00007f580c91af20} &apos;copyOf&apos; &apos;([CI)[C&apos; in &apos;java/util/Arrays&apos;)}
  0x00007f580d10b40f: 4883860801000001    add       qword ptr [rsi+108h],1h
  0x00007f580d10b417: 48bee89f9c0c587f0000 mov       rsi,7f580c9c9fe8h
                                                ;   {metadata(method data for {method} {0x00007f580c8f67d8} &apos;min&apos; &apos;(II)I&apos; in &apos;java/lang/Math&apos;)}
  0x00007f580d10b421: 8b96dc000000        mov       edx,dword ptr [rsi+0dch]
  0x00007f580d10b427: 83c208              add       edx,8h
  0x00007f580d10b42a: 8996dc000000        mov       dword ptr [rsi+0dch],edx
  0x00007f580d10b430: 48bed8678f0c587f0000 mov       rsi,7f580c8f67d8h
                                                ;   {metadata({method} {0x00007f580c8f67d8} &apos;min&apos; &apos;(II)I&apos; in &apos;java/lang/Math&apos;)}
  0x00007f580d10b43a: 81e2f8ff7f00        and       edx,7ffff8h
  0x00007f580d10b440: 83fa00              cmp       edx,0h
  0x00007f580d10b443: 0f8463010000        je        7f580d10b5ach
  0x00007f580d10b449: 8b5c2478            mov       ebx,dword ptr [rsp+78h]
  0x00007f580d10b44d: 413bd8              cmp       ebx,r8d
  0x00007f580d10b450: 48bee89f9c0c587f0000 mov       rsi,7f580c9c9fe8h
                                                ;   {metadata(method data for {method} {0x00007f580c8f67d8} &apos;min&apos; &apos;(II)I&apos; in &apos;java/lang/Math&apos;)}
  0x00007f580d10b45a: 48ba0801000000000000 mov       rdx,108h
  0x00007f580d10b464: 0f8f0a000000        jnle      7f580d10b474h
  0x00007f580d10b46a: 48ba1801000000000000 mov       rdx,118h
  0x00007f580d10b474: 488b0c16            mov       rcx,qword ptr [rsi+rdx]
  0x00007f580d10b478: 488d4901            lea       rcx,[rcx+1h]
  0x00007f580d10b47c: 48890c16            mov       qword ptr [rsi+rdx],rcx
  0x00007f580d10b480: 0f8f15000000        jnle      7f580d10b49bh
                                                ;*if_icmpgt
                                                ; - java.lang.Math::min@2 (line 1336)
                                                ; - java.util.Arrays::copyOf@11 (line 3334)
                                                ; - java.lang.AbstractStringBuilder::ensureCapacityInternal@20 (line 124)

  0x00007f580d10b486: 48bee89f9c0c587f0000 mov       rsi,7f580c9c9fe8h
                                                ;   {metadata(method data for {method} {0x00007f580c8f67d8} &apos;min&apos; &apos;(II)I&apos; in &apos;java/lang/Math&apos;)}
  0x00007f580d10b490: ff8628010000        inc       dword ptr [rsi+128h]
  0x00007f580d10b496: e903000000          jmp       7f580d10b49eh
                                                ;*goto
                                                ; - java.lang.Math::min@6 (line 1336)
                                                ; - java.util.Arrays::copyOf@11 (line 3334)
                                                ; - java.lang.AbstractStringBuilder::ensureCapacityInternal@20 (line 124)

  0x00007f580d10b49b: 498bd8              mov       rbx,r8
                                                ;*ireturn
                                                ; - java.lang.Math::min@10 (line 1336)
                                                ; - java.util.Arrays::copyOf@11 (line 3334)
                                                ; - java.lang.AbstractStringBuilder::ensureCapacityInternal@20 (line 124)

  0x00007f580d10b49e: 488bbc2480000000    mov       rdi,qword ptr [rsp+80h]
  0x00007f580d10b4a6: 48be481ba00c587f0000 mov       rsi,7f580ca01b48h
                                                ;   {metadata(method data for {method} {0x00007f580c91af20} &apos;copyOf&apos; &apos;([CI)[C&apos; in &apos;java/util/Arrays&apos;)}
  0x00007f580d10b4b0: 4883861801000001    add       qword ptr [rsi+118h],1h
  0x00007f580d10b4b8: 488bf7              mov       rsi,rdi
  0x00007f580d10b4bb: ba00000000          mov       edx,0h
  0x00007f580d10b4c0: 488bc8              mov       rcx,rax
  0x00007f580d10b4c3: 41b800000000        mov       r8d,0h
  0x00007f580d10b4c9: 4c8bcb              mov       r9,rbx
  0x00007f580d10b4cc: 4889842490000000    mov       qword ptr [rsp+90h],rax
  0x00007f580d10b4d4: 4a8d3c0a            lea       rdi,[rdx+r9]
  0x00007f580d10b4d8: 3b7e0c              cmp       edi,dword ptr [rsi+0ch]
  0x00007f580d10b4db: 0f87e2000000        jnbe      7f580d10b5c3h
  0x00007f580d10b4e1: 4b8d3c08            lea       rdi,[r8+r9]
  0x00007f580d10b4e5: 3b790c              cmp       edi,dword ptr [rcx+0ch]
  0x00007f580d10b4e8: 0f87d5000000        jnbe      7f580d10b5c3h
  0x00007f580d10b4ee: 4585c9              test      r9d,r9d
  0x00007f580d10b4f1: 0f8ccc000000        jl        7f580d10b5c3h
  0x00007f580d10b4f7: 0f8436000000        je        7f580d10b533h
  0x00007f580d10b4fd: 4863d2              movsxd    rdx,edx
  0x00007f580d10b500: 4d63c0              movsxd    r8,r8d
  0x00007f580d10b503: 488d7c5610          lea       rdi,[rsi+rdx*2+10h]
  0x00007f580d10b508: 4a8d744110          lea       rsi,[rcx+r8*2+10h]
  0x00007f580d10b50d: 498bd1              mov       rdx,r9
  0x00007f580d10b510: f7c40f000000        test      esp,0fh
  0x00007f580d10b516: 0f8412000000        je        7f580d10b52eh
  0x00007f580d10b51c: 4883ec08            sub       rsp,8h
  0x00007f580d10b520: e8fb72f4ff          call      7f580d052820h
                                                ;   {runtime_call}
  0x00007f580d10b525: 4883c408            add       rsp,8h
  0x00007f580d10b529: e905000000          jmp       7f580d10b533h
  0x00007f580d10b52e: e8ed72f4ff          call      7f580d052820h
                                                ;*invokestatic arraycopy
                                                ; - java.util.Arrays::copyOf@14 (line 3333)
                                                ; - java.lang.AbstractStringBuilder::ensureCapacityInternal@20 (line 124)
                                                ;   {runtime_call}
  0x00007f580d10b533: 488b842490000000    mov       rax,qword ptr [rsp+90h]
  0x00007f580d10b53b: 488bb42488000000    mov       rsi,qword ptr [rsp+88h]
  0x00007f580d10b543: 4c8bd0              mov       r10,rax
  0x00007f580d10b546: 49c1ea03            shr       r10,3h
  0x00007f580d10b54a: 44895610            mov       dword ptr [rsi+10h],r10d
  0x00007f580d10b54e: 48c1ee09            shr       rsi,9h
  0x00007f580d10b552: 48bf00a07a1d587f0000 mov       rdi,7f581d7aa000h
  0x00007f580d10b55c: c6043e00            mov       byte ptr [rsi+rdi],0h
                                                ;*putfield value
                                                ; - java.lang.AbstractStringBuilder::ensureCapacityInternal@23 (line 124)

  0x00007f580d10b560: 4881c4a0000000      add       rsp,0a0h
  0x00007f580d10b567: 5d                  pop       rbp
  0x00007f580d10b568: 8505927b8d17        test      dword ptr [7f58249e3100h],eax
                                                ;   {poll_return}
  0x00007f580d10b56e: c3                  ret
  0x00007f580d10b56f: 48897c2408          mov       qword ptr [rsp+8h],rdi
  0x00007f580d10b574: 48c70424ffffffff    mov       qword ptr [rsp],0ffffffffffffffffh
  0x00007f580d10b57c: e89f39ffff          call      7f580d0fef20h
                                                ; OopMap{rsi=Oop off=801}
                                                ;*synchronization entry
                                                ; - java.lang.AbstractStringBuilder::ensureCapacityInternal@-1 (line 123)
                                                ;   {runtime_call}
  0x00007f580d10b581: e93bfdffff          jmp       7f580d10b2c1h
  0x00007f580d10b586: e87533f6ff          call      7f580d06e900h
                                                ; OopMap{rsi=Oop rdi=Oop off=811}
                                                ;*arraylength
                                                ; - java.lang.AbstractStringBuilder::ensureCapacityInternal@5 (line 123)
                                                ;   {runtime_call}
  0x00007f580d10b58b: 48895c2408          mov       qword ptr [rsp+8h],rbx
  0x00007f580d10b590: 48c70424ffffffff    mov       qword ptr [rsp],0ffffffffffffffffh
  0x00007f580d10b598: e88339ffff          call      7f580d0fef20h
                                                ; OopMap{[136]=Oop [128]=Oop off=829}
                                                ;*synchronization entry
                                                ; - java.util.Arrays::copyOf@-1 (line 3332)
                                                ; - java.lang.AbstractStringBuilder::ensureCapacityInternal@20 (line 124)
                                                ;   {runtime_call}
  0x00007f580d10b59d: e9e9fdffff          jmp       7f580d10b38bh
  0x00007f580d10b5a2: e8b920f6ff          call      7f580d06d660h
                                                ; OopMap{[136]=Oop [128]=Oop off=839}
                                                ;*newarray
                                                ; - java.util.Arrays::copyOf@1 (line 3332)
                                                ; - java.lang.AbstractStringBuilder::ensureCapacityInternal@20 (line 124)
                                                ;   {runtime_call}
  0x00007f580d10b5a7: e959feffff          jmp       7f580d10b405h
  0x00007f580d10b5ac: 4889742408          mov       qword ptr [rsp+8h],rsi
  0x00007f580d10b5b1: 48c70424ffffffff    mov       qword ptr [rsp],0ffffffffffffffffh
  0x00007f580d10b5b9: e86239ffff          call      7f580d0fef20h
                                                ; OopMap{[136]=Oop [128]=Oop rax=Oop off=862}
                                                ;*synchronization entry
                                                ; - java.lang.Math::min@-1 (line 1336)
                                                ; - java.util.Arrays::copyOf@11 (line 3334)
                                                ; - java.lang.AbstractStringBuilder::ensureCapacityInternal@20 (line 124)
                                                ;   {runtime_call}
  0x00007f580d10b5be: e986feffff          jmp       7f580d10b449h
  0x00007f580d10b5c3: 90                  nop
  0x00007f580d10b5c4: 90                  nop
  0x00007f580d10b5c5: 90                  nop
  0x00007f580d10b5c6: 90                  nop
  0x00007f580d10b5c7: e854aff3ff          call      7f580d046520h
                                                ; OopMap{[136]=Oop [144]=Oop off=876}
                                                ;*invokestatic arraycopy
                                                ; - java.util.Arrays::copyOf@14 (line 3333)
                                                ; - java.lang.AbstractStringBuilder::ensureCapacityInternal@20 (line 124)
                                                ;   {static_call}
  0x00007f580d10b5cc: e962ffffff          jmp       7f580d10b533h
  0x00007f580d10b5d1: 90                  nop
  0x00007f580d10b5d2: 90                  nop
  0x00007f580d10b5d3: 498b87a8020000      mov       rax,qword ptr [r15+2a8h]
  0x00007f580d10b5da: 49ba0000000000000000 mov       r10,0h
  0x00007f580d10b5e4: 4d8997a8020000      mov       qword ptr [r15+2a8h],r10
  0x00007f580d10b5eb: 49ba0000000000000000 mov       r10,0h
  0x00007f580d10b5f5: 4d8997b0020000      mov       qword ptr [r15+2b0h],r10
  0x00007f580d10b5fc: 4881c4a0000000      add       rsp,0a0h
  0x00007f580d10b603: 5d                  pop       rbp
  0x00007f580d10b604: e9573ef6ff          jmp       7f580d06f460h
                                                ;   {runtime_call}
  0x00007f580d10b609: f4                  hlt
  0x00007f580d10b60a: f4                  hlt
  0x00007f580d10b60b: f4                  hlt
  0x00007f580d10b60c: f4                  hlt
  0x00007f580d10b60d: f4                  hlt
  0x00007f580d10b60e: f4                  hlt
  0x00007f580d10b60f: f4                  hlt
  0x00007f580d10b610: f4                  hlt
  0x00007f580d10b611: f4                  hlt
  0x00007f580d10b612: f4                  hlt
  0x00007f580d10b613: f4                  hlt
  0x00007f580d10b614: f4                  hlt
  0x00007f580d10b615: f4                  hlt
  0x00007f580d10b616: f4                  hlt
  0x00007f580d10b617: f4                  hlt
  0x00007f580d10b618: f4                  hlt
  0x00007f580d10b619: f4                  hlt
  0x00007f580d10b61a: f4                  hlt
  0x00007f580d10b61b: f4                  hlt
  0x00007f580d10b61c: f4                  hlt
  0x00007f580d10b61d: f4                  hlt
  0x00007f580d10b61e: f4                  hlt
  0x00007f580d10b61f: f4                  hlt
[Stub Code]
  0x00007f580d10b620: 90                  nop   ;   {no_reloc}
  0x00007f580d10b621: 90                  nop
  0x00007f580d10b622: 90                  nop
  0x00007f580d10b623: 90                  nop
  0x00007f580d10b624: 90                  nop
  0x00007f580d10b625: 48bb0000000000000000 mov       rbx,0h
                                                ;   {static_stub}
  0x00007f580d10b62f: e9fbffffff          jmp       7f580d10b62fh
                                                ;   {runtime_call}
  0x00007f580d10b634: 90                  nop
  0x00007f580d10b635: 48bb0000000000000000 mov       rbx,0h
                                                ;   {static_stub}
  0x00007f580d10b63f: e9fbffffff          jmp       7f580d10b63fh
                                                ;   {runtime_call}
[Exception Handler]
  0x00007f580d10b644: e81711ffff          call      7f580d0fc760h
                                                ;   {runtime_call}
  0x00007f580d10b649: 48896424d8          mov       qword ptr [rsp+0ffffffffffffffd8h],rsp
  0x00007f580d10b64e: 4881ec80000000      sub       rsp,80h
  0x00007f580d10b655: 4889442478          mov       qword ptr [rsp+78h],rax
  0x00007f580d10b65a: 48894c2470          mov       qword ptr [rsp+70h],rcx
  0x00007f580d10b65f: 4889542468          mov       qword ptr [rsp+68h],rdx
  0x00007f580d10b664: 48895c2460          mov       qword ptr [rsp+60h],rbx
  0x00007f580d10b669: 48896c2450          mov       qword ptr [rsp+50h],rbp
  0x00007f580d10b66e: 4889742448          mov       qword ptr [rsp+48h],rsi
  0x00007f580d10b673: 48897c2440          mov       qword ptr [rsp+40h],rdi
  0x00007f580d10b678: 4c89442438          mov       qword ptr [rsp+38h],r8
  0x00007f580d10b67d: 4c894c2430          mov       qword ptr [rsp+30h],r9
  0x00007f580d10b682: 4c89542428          mov       qword ptr [rsp+28h],r10
  0x00007f580d10b687: 4c895c2420          mov       qword ptr [rsp+20h],r11
  0x00007f580d10b68c: 4c89642418          mov       qword ptr [rsp+18h],r12
  0x00007f580d10b691: 4c896c2410          mov       qword ptr [rsp+10h],r13
  0x00007f580d10b696: 4c89742408          mov       qword ptr [rsp+8h],r14
  0x00007f580d10b69b: 4c893c24            mov       qword ptr [rsp],r15
  0x00007f580d10b69f: 48bff6598c23587f0000 mov       rdi,7f58238c59f6h
                                                ;   {external_word}
  0x00007f580d10b6a9: 48be49b6100d587f0000 mov       rsi,7f580d10b649h
                                                ;   {internal_word}
  0x00007f580d10b6b3: 488bd4              mov       rdx,rsp
  0x00007f580d10b6b6: 4883e4f0            and       rsp,0fffffffffffffff0h
  0x00007f580d10b6ba: e8a1db4b16          call      7f58235c9260h
                                                ;   {runtime_call}
  0x00007f580d10b6bf: f4                  hlt
[Deopt Handler Code]
  0x00007f580d10b6c0: 49bac0b6100d587f0000 mov       r10,7f580d10b6c0h
                                                ;   {section_word}
  0x00007f580d10b6ca: 4152                push      r10
  0x00007f580d10b6cc: e92fbef3ff          jmp       7f580d047500h
                                                ;   {runtime_call}
  0x00007f580d10b6d1: f4                  hlt
  0x00007f580d10b6d2: f4                  hlt
  0x00007f580d10b6d3: f4                  hlt
  0x00007f580d10b6d4: f4                  hlt
  0x00007f580d10b6d5: f4                  hlt
  0x00007f580d10b6d6: f4                  hlt
  0x00007f580d10b6d7: f4                  hlt
<nmethod compile_id='8' compiler='C1' level='3' entry='0x00007f580d10b260' size='2128' address='0x00007f580d10b0d0' relocation_offset='296' insts_offset='400' stub_offset='1360' scopes_data_offset='1568' scopes_pcs_offset='1768' dependencies_offset='2104' nul_chk_table_offset='2112' method='java/lang/AbstractStringBuilder ensureCapacityInternal (I)V' bytes='27' count='326' iicount='326' stamp='0.241'/>
Decoding compiled method 0x00007f580d10b950:
Code:
RIP: 0x7f580d10bae0 Code size: 0x00000388
[Entry Point]
[Constants]
   {method} {0x00007f580c805180} &apos;indexOf&apos; &apos;(II)I&apos; in &apos;java/lang/String&apos;
   this:     rsi:rsi   = &apos;java/lang/String&apos;
   parm0:    rdx       = int
   parm1:    rcx       = int
             [sp+0x40]  (sp of caller)
  0x00007f580d10bae0: 448b5608            mov       r10d,dword ptr [rsi+8h]
  0x00007f580d10bae4: 49c1e203            shl       r10,3h
  0x00007f580d10bae8: 4c3bd0              cmp       r10,rax
  0x00007f580d10baeb: 0f856fa3f3ff        jne       7f580d045e60h
                                                ;   {runtime_call}
  0x00007f580d10baf1: 6666660f1f840000000000 nop       word ptr [rax+rax+0h]
  0x00007f580d10bafc: 66666690            nop
[Verified Entry Point]
  0x00007f580d10bb00: 89842400c0feff      mov       dword ptr [rsp+0fffffffffffec000h],eax
  0x00007f580d10bb07: 55                  push      rbp
  0x00007f580d10bb08: 4883ec30            sub       rsp,30h
  0x00007f580d10bb0c: 48b8782aa00c587f0000 mov       rax,7f580ca02a78h
                                                ;   {metadata(method data for {method} {0x00007f580c805180} &apos;indexOf&apos; &apos;(II)I&apos; in &apos;java/lang/String&apos;)}
  0x00007f580d10bb16: 8bb8dc000000        mov       edi,dword ptr [rax+0dch]
  0x00007f580d10bb1c: 83c708              add       edi,8h
  0x00007f580d10bb1f: 89b8dc000000        mov       dword ptr [rax+0dch],edi
  0x00007f580d10bb25: 48b88051800c587f0000 mov       rax,7f580c805180h
                                                ;   {metadata({method} {0x00007f580c805180} &apos;indexOf&apos; &apos;(II)I&apos; in &apos;java/lang/String&apos;)}
  0x00007f580d10bb2f: 81e7f81f0000        and       edi,1ff8h
  0x00007f580d10bb35: 83ff00              cmp       edi,0h
  0x00007f580d10bb38: 0f8403020000        je        7f580d10bd41h
                                                ;*aload_0
                                                ; - java.lang.String::indexOf@0 (line 1546)

  0x00007f580d10bb3e: 8b460c              mov       eax,dword ptr [rsi+0ch]
  0x00007f580d10bb41: 48c1e003            shl       rax,3h
                                                ;*getfield value
                                                ; - java.lang.String::indexOf@1 (line 1546)

  0x00007f580d10bb45: 8b780c              mov       edi,dword ptr [rax+0ch]
                                                ;*arraylength
                                                ; - java.lang.String::indexOf@4 (line 1546)
                                                ; implicit exception: dispatches to 0x00007f580d10bd58
  0x00007f580d10bb48: 83f900              cmp       ecx,0h
  0x00007f580d10bb4b: 48bb782aa00c587f0000 mov       rbx,7f580ca02a78h
                                                ;   {metadata(method data for {method} {0x00007f580c805180} &apos;indexOf&apos; &apos;(II)I&apos; in &apos;java/lang/String&apos;)}
  0x00007f580d10bb55: 49b80801000000000000 mov       r8,108h
  0x00007f580d10bb5f: 0f8d0a000000        jnl       7f580d10bb6fh
  0x00007f580d10bb65: 49b81801000000000000 mov       r8,118h
  0x00007f580d10bb6f: 4e8b0c03            mov       r9,qword ptr [rbx+r8]
  0x00007f580d10bb73: 4d8d4901            lea       r9,[r9+1h]
  0x00007f580d10bb77: 4e890c03            mov       qword ptr [rbx+r8],r9
  0x00007f580d10bb7b: 0f8d1a000000        jnl       7f580d10bb9bh
                                                ;*ifge
                                                ; - java.lang.String::indexOf@7 (line 1547)

  0x00007f580d10bb81: 48b9782aa00c587f0000 mov       rcx,7f580ca02a78h
                                                ;   {metadata(method data for {method} {0x00007f580c805180} &apos;indexOf&apos; &apos;(II)I&apos; in &apos;java/lang/String&apos;)}
  0x00007f580d10bb8b: ff8128010000        inc       dword ptr [rcx+128h]
  0x00007f580d10bb91: b900000000          mov       ecx,0h
  0x00007f580d10bb96: e938000000          jmp       7f580d10bbd3h
                                                ;*goto
                                                ; - java.lang.String::indexOf@12 (line 1548)

  0x00007f580d10bb9b: 3bcf                cmp       ecx,edi
  0x00007f580d10bb9d: 48bb782aa00c587f0000 mov       rbx,7f580ca02a78h
                                                ;   {metadata(method data for {method} {0x00007f580c805180} &apos;indexOf&apos; &apos;(II)I&apos; in &apos;java/lang/String&apos;)}
  0x00007f580d10bba7: 49b84001000000000000 mov       r8,140h
  0x00007f580d10bbb1: 0f8c0a000000        jl        7f580d10bbc1h
  0x00007f580d10bbb7: 49b85001000000000000 mov       r8,150h
  0x00007f580d10bbc1: 4e8b0c03            mov       r9,qword ptr [rbx+r8]
  0x00007f580d10bbc5: 4d8d4901            lea       r9,[r9+1h]
  0x00007f580d10bbc9: 4e890c03            mov       qword ptr [rbx+r8],r9
  0x00007f580d10bbcd: 0f8d5d010000        jnl       7f580d10bd30h
                                                ;*if_icmplt
                                                ; - java.lang.String::indexOf@17 (line 1549)

  0x00007f580d10bbd3: 81fa00000100        cmp       edx,10000h
  0x00007f580d10bbd9: 48bb782aa00c587f0000 mov       rbx,7f580ca02a78h
                                                ;   {metadata(method data for {method} {0x00007f580c805180} &apos;indexOf&apos; &apos;(II)I&apos; in &apos;java/lang/String&apos;)}
  0x00007f580d10bbe3: 49b86001000000000000 mov       r8,160h
  0x00007f580d10bbed: 0f8d0a000000        jnl       7f580d10bbfdh
  0x00007f580d10bbf3: 49b87001000000000000 mov       r8,170h
  0x00007f580d10bbfd: 4e8b0c03            mov       r9,qword ptr [rbx+r8]
  0x00007f580d10bc01: 4d8d4901            lea       r9,[r9+1h]
  0x00007f580d10bc05: 4e890c03            mov       qword ptr [rbx+r8],r9
  0x00007f580d10bc09: 0f8df9000000        jnl       7f580d10bd08h
  0x00007f580d10bc0f: e997000000          jmp       7f580d10bcabh
                                                ;*if_icmpge
                                                ; - java.lang.String::indexOf@25 (line 1554)

  0x00007f580d10bc14: 0f1f4000            nop       dword ptr [rax+0h]
  0x00007f580d10bc18: 4863f1              movsxd    rsi,ecx
  0x00007f580d10bc1b: 3b480c              cmp       ecx,dword ptr [rax+0ch]
  0x00007f580d10bc1e: 0f8339010000        jnb       7f580d10bd5dh
  0x00007f580d10bc24: 0fb7747010          movzx     esi,word ptr [rax+rsi*2+10h]
                                                ;*caload
                                                ; - java.lang.String::indexOf@47 (line 1559)

  0x00007f580d10bc29: 3bf2                cmp       esi,edx
  0x00007f580d10bc2b: 48be782aa00c587f0000 mov       rsi,7f580ca02a78h
                                                ;   {metadata(method data for {method} {0x00007f580c805180} &apos;indexOf&apos; &apos;(II)I&apos; in &apos;java/lang/String&apos;)}
  0x00007f580d10bc35: 48bba001000000000000 mov       rbx,1a0h
  0x00007f580d10bc3f: 0f850a000000        jne       7f580d10bc4fh
  0x00007f580d10bc45: 48bbb001000000000000 mov       rbx,1b0h
  0x00007f580d10bc4f: 4c8b041e            mov       r8,qword ptr [rsi+rbx]
  0x00007f580d10bc53: 4d8d4001            lea       r8,[r8+1h]
  0x00007f580d10bc57: 4c89041e            mov       qword ptr [rsi+rbx],r8
  0x00007f580d10bc5b: 0f8487000000        je        7f580d10bce8h
                                                ;*if_icmpne
                                                ; - java.lang.String::indexOf@49 (line 1559)

  0x00007f580d10bc61: ffc1                inc       ecx
  0x00007f580d10bc63: 48be782aa00c587f0000 mov       rsi,7f580ca02a78h
                                                ;   {metadata(method data for {method} {0x00007f580c805180} &apos;indexOf&apos; &apos;(II)I&apos; in &apos;java/lang/String&apos;)}
  0x00007f580d10bc6d: 8b9ee0000000        mov       ebx,dword ptr [rsi+0e0h]
  0x00007f580d10bc73: 83c308              add       ebx,8h
  0x00007f580d10bc76: 899ee0000000        mov       dword ptr [rsi+0e0h],ebx
  0x00007f580d10bc7c: 48be8051800c587f0000 mov       rsi,7f580c805180h
                                                ;   {metadata({method} {0x00007f580c805180} &apos;indexOf&apos; &apos;(II)I&apos; in &apos;java/lang/String&apos;)}
  0x00007f580d10bc86: 81e3f8ff0000        and       ebx,0fff8h
  0x00007f580d10bc8c: 83fb00              cmp       ebx,0h
  0x00007f580d10bc8f: 0f84d1000000        je        7f580d10bd66h
                                                ; OopMap{rax=Oop off=437}
                                                ;*goto
                                                ; - java.lang.String::indexOf@58 (line 1558)

  0x00007f580d10bc95: 850565748d17        test      dword ptr [7f58249e3100h],eax
                                                ;   {poll}
  0x00007f580d10bc9b: 48be782aa00c587f0000 mov       rsi,7f580ca02a78h
                                                ;   {metadata(method data for {method} {0x00007f580c805180} &apos;indexOf&apos; &apos;(II)I&apos; in &apos;java/lang/String&apos;)}
  0x00007f580d10bca5: ff86c0010000        inc       dword ptr [rsi+1c0h]
                                                ;*goto
                                                ; - java.lang.String::indexOf@58 (line 1558)

  0x00007f580d10bcab: 3bcf                cmp       ecx,edi
  0x00007f580d10bcad: 48be782aa00c587f0000 mov       rsi,7f580ca02a78h
                                                ;   {metadata(method data for {method} {0x00007f580c805180} &apos;indexOf&apos; &apos;(II)I&apos; in &apos;java/lang/String&apos;)}
  0x00007f580d10bcb7: 48bb8001000000000000 mov       rbx,180h
  0x00007f580d10bcc1: 0f8d0a000000        jnl       7f580d10bcd1h
  0x00007f580d10bcc7: 48bb9001000000000000 mov       rbx,190h
  0x00007f580d10bcd1: 4c8b041e            mov       r8,qword ptr [rsi+rbx]
  0x00007f580d10bcd5: 4d8d4001            lea       r8,[r8+1h]
  0x00007f580d10bcd9: 4c89041e            mov       qword ptr [rsi+rbx],r8
  0x00007f580d10bcdd: 0f8d14000000        jnl       7f580d10bcf7h
  0x00007f580d10bce3: e930ffffff          jmp       7f580d10bc18h
                                                ;*if_icmpge
                                                ; - java.lang.String::indexOf@40 (line 1558)

  0x00007f580d10bce8: 488bc1              mov       rax,rcx
  0x00007f580d10bceb: 4883c430            add       rsp,30h
  0x00007f580d10bcef: 5d                  pop       rbp
  0x00007f580d10bcf0: 85050a748d17        test      dword ptr [7f58249e3100h],eax
                                                ;   {poll_return}
  0x00007f580d10bcf6: c3                  ret   ;*ireturn
                                                ; - java.lang.String::indexOf@54 (line 1560)

  0x00007f580d10bcf7: b8ffffffff          mov       eax,0ffffffffh
  0x00007f580d10bcfc: 4883c430            add       rsp,30h
  0x00007f580d10bd00: 5d                  pop       rbp
  0x00007f580d10bd01: 8505f9738d17        test      dword ptr [7f58249e3100h],eax
                                                ;   {poll_return}
  0x00007f580d10bd07: c3                  ret   ;*ireturn
                                                ; - java.lang.String::indexOf@62 (line 1563)

  0x00007f580d10bd08: 488bfe              mov       rdi,rsi
  0x00007f580d10bd0b: 48bb782aa00c587f0000 mov       rbx,7f580ca02a78h
                                                ;   {metadata(method data for {method} {0x00007f580c805180} &apos;indexOf&apos; &apos;(II)I&apos; in &apos;java/lang/String&apos;)}
  0x00007f580d10bd15: 488383d801000001    add       qword ptr [rbx+1d8h],1h
  0x00007f580d10bd1d: 90                  nop
  0x00007f580d10bd1e: 90                  nop
  0x00007f580d10bd1f: e87ca3f3ff          call      7f580d0460a0h
                                                ; OopMap{off=580}
                                                ;*invokespecial indexOfSupplementary
                                                ; - java.lang.String::indexOf@66 (line 1565)
                                                ;   {optimized virtual_call}
  0x00007f580d10bd24: 4883c430            add       rsp,30h
  0x00007f580d10bd28: 5d                  pop       rbp
  0x00007f580d10bd29: 8505d1738d17        test      dword ptr [7f58249e3100h],eax
                                                ;   {poll_return}
  0x00007f580d10bd2f: c3                  ret   ;*ireturn
                                                ; - java.lang.String::indexOf@69 (line 1565)

  0x00007f580d10bd30: b8ffffffff          mov       eax,0ffffffffh
  0x00007f580d10bd35: 4883c430            add       rsp,30h
  0x00007f580d10bd39: 5d                  pop       rbp
  0x00007f580d10bd3a: 8505c0738d17        test      dword ptr [7f58249e3100h],eax
                                                ;   {poll_return}
  0x00007f580d10bd40: c3                  ret
  0x00007f580d10bd41: 4889442408          mov       qword ptr [rsp+8h],rax
  0x00007f580d10bd46: 48c70424ffffffff    mov       qword ptr [rsp],0ffffffffffffffffh
  0x00007f580d10bd4e: e8cd31ffff          call      7f580d0fef20h
                                                ; OopMap{rsi=Oop off=627}
                                                ;*synchronization entry
                                                ; - java.lang.String::indexOf@-1 (line 1546)
                                                ;   {runtime_call}
  0x00007f580d10bd53: e9e6fdffff          jmp       7f580d10bb3eh
  0x00007f580d10bd58: e8a32bf6ff          call      7f580d06e900h
                                                ; OopMap{rsi=Oop rax=Oop off=637}
                                                ;*arraylength
                                                ; - java.lang.String::indexOf@4 (line 1546)
                                                ;   {runtime_call}
  0x00007f580d10bd5d: 48890c24            mov       qword ptr [rsp],rcx
  0x00007f580d10bd61: e85a32f6ff          call      7f580d06efc0h
                                                ; OopMap{rax=Oop off=646}
                                                ;*caload
                                                ; - java.lang.String::indexOf@47 (line 1559)
                                                ;   {runtime_call}
  0x00007f580d10bd66: 4889742408          mov       qword ptr [rsp+8h],rsi
  0x00007f580d10bd6b: 48c704243a000000    mov       qword ptr [rsp],3ah
  0x00007f580d10bd73: e8a831ffff          call      7f580d0fef20h
                                                ; OopMap{rax=Oop off=664}
                                                ;*goto
                                                ; - java.lang.String::indexOf@58 (line 1558)
                                                ;   {runtime_call}
  0x00007f580d10bd78: e918ffffff          jmp       7f580d10bc95h
  0x00007f580d10bd7d: 90                  nop
  0x00007f580d10bd7e: 90                  nop
  0x00007f580d10bd7f: 498b87a8020000      mov       rax,qword ptr [r15+2a8h]
  0x00007f580d10bd86: 49ba0000000000000000 mov       r10,0h
  0x00007f580d10bd90: 4d8997a8020000      mov       qword ptr [r15+2a8h],r10
  0x00007f580d10bd97: 49ba0000000000000000 mov       r10,0h
  0x00007f580d10bda1: 4d8997b0020000      mov       qword ptr [r15+2b0h],r10
  0x00007f580d10bda8: 4883c430            add       rsp,30h
  0x00007f580d10bdac: 5d                  pop       rbp
  0x00007f580d10bdad: e9ae36f6ff          jmp       7f580d06f460h
                                                ;   {runtime_call}
  0x00007f580d10bdb2: f4                  hlt
  0x00007f580d10bdb3: f4                  hlt
  0x00007f580d10bdb4: f4                  hlt
  0x00007f580d10bdb5: f4                  hlt
  0x00007f580d10bdb6: f4                  hlt
  0x00007f580d10bdb7: f4                  hlt
  0x00007f580d10bdb8: f4                  hlt
  0x00007f580d10bdb9: f4                  hlt
  0x00007f580d10bdba: f4                  hlt
  0x00007f580d10bdbb: f4                  hlt
  0x00007f580d10bdbc: f4                  hlt
  0x00007f580d10bdbd: f4                  hlt
  0x00007f580d10bdbe: f4                  hlt
  0x00007f580d10bdbf: f4                  hlt
[Stub Code]
  0x00007f580d10bdc0: 90                  nop   ;   {no_reloc}
  0x00007f580d10bdc1: 90                  nop
  0x00007f580d10bdc2: 90                  nop
  0x00007f580d10bdc3: 90                  nop
  0x00007f580d10bdc4: 90                  nop
  0x00007f580d10bdc5: 48bb0000000000000000 mov       rbx,0h
                                                ;   {static_stub}
  0x00007f580d10bdcf: e9fbffffff          jmp       7f580d10bdcfh
                                                ;   {runtime_call}
[Exception Handler]
  0x00007f580d10bdd4: e88709ffff          call      7f580d0fc760h
                                                ;   {runtime_call}
  0x00007f580d10bdd9: 48896424d8          mov       qword ptr [rsp+0ffffffffffffffd8h],rsp
  0x00007f580d10bdde: 4881ec80000000      sub       rsp,80h
  0x00007f580d10bde5: 4889442478          mov       qword ptr [rsp+78h],rax
  0x00007f580d10bdea: 48894c2470          mov       qword ptr [rsp+70h],rcx
  0x00007f580d10bdef: 4889542468          mov       qword ptr [rsp+68h],rdx
  0x00007f580d10bdf4: 48895c2460          mov       qword ptr [rsp+60h],rbx
  0x00007f580d10bdf9: 48896c2450          mov       qword ptr [rsp+50h],rbp
  0x00007f580d10bdfe: 4889742448          mov       qword ptr [rsp+48h],rsi
  0x00007f580d10be03: 48897c2440          mov       qword ptr [rsp+40h],rdi
  0x00007f580d10be08: 4c89442438          mov       qword ptr [rsp+38h],r8
  0x00007f580d10be0d: 4c894c2430          mov       qword ptr [rsp+30h],r9
  0x00007f580d10be12: 4c89542428          mov       qword ptr [rsp+28h],r10
  0x00007f580d10be17: 4c895c2420          mov       qword ptr [rsp+20h],r11
  0x00007f580d10be1c: 4c89642418          mov       qword ptr [rsp+18h],r12
  0x00007f580d10be21: 4c896c2410          mov       qword ptr [rsp+10h],r13
  0x00007f580d10be26: 4c89742408          mov       qword ptr [rsp+8h],r14
  0x00007f580d10be2b: 4c893c24            mov       qword ptr [rsp],r15
  0x00007f580d10be2f: 48bff6598c23587f0000 mov       rdi,7f58238c59f6h
                                                ;   {external_word}
  0x00007f580d10be39: 48bed9bd100d587f0000 mov       rsi,7f580d10bdd9h
                                                ;   {internal_word}
  0x00007f580d10be43: 488bd4              mov       rdx,rsp
  0x00007f580d10be46: 4883e4f0            and       rsp,0fffffffffffffff0h
  0x00007f580d10be4a: e811d44b16          call      7f58235c9260h
                                                ;   {runtime_call}
  0x00007f580d10be4f: f4                  hlt
[Deopt Handler Code]
  0x00007f580d10be50: 49ba50be100d587f0000 mov       r10,7f580d10be50h
                                                ;   {section_word}
  0x00007f580d10be5a: 4152                push      r10
  0x00007f580d10be5c: e99fb6f3ff          jmp       7f580d047500h
                                                ;   {runtime_call}
  0x00007f580d10be61: f4                  hlt
  0x00007f580d10be62: f4                  hlt
  0x00007f580d10be63: f4                  hlt
  0x00007f580d10be64: f4                  hlt
  0x00007f580d10be65: f4                  hlt
  0x00007f580d10be66: f4                  hlt
  0x00007f580d10be67: f4                  hlt
<nmethod compile_id='9' compiler='C1' level='3' entry='0x00007f580d10bae0' size='1848' address='0x00007f580d10b950' relocation_offset='296' insts_offset='400' stub_offset='1136' scopes_data_offset='1312' scopes_pcs_offset='1472' dependencies_offset='1824' nul_chk_table_offset='1832' method='java/lang/String indexOf (II)I' bytes='70' count='202' backedge_count='5216' iicount='202' stamp='0.256'/>
<writer thread='140016548087552'/>
<task_queued compile_id='10' method='java/lang/AbstractStringBuilder append (Ljava/lang/String;)Ljava/lang/AbstractStringBuilder;' bytes='50' count='256' iicount='256' level='3' stamp='0.258' comment='tiered' hot_count='256'/>
<task_queued compile_id='11' method='java/lang/String getChars (II[CI)V' bytes='62' count='256' iicount='256' level='3' stamp='0.258' comment='tiered' hot_count='256'/>
<writer thread='140016054187776'/>
Decoding compiled method 0x00007f580d10c0d0:
Code:
RIP: 0x7f580d10c2a0 Code size: 0x00000758
[Entry Point]
[Constants]
   {method} {0x00007f580c875e38} &apos;append&apos; &apos;(Ljava/lang/String;)Ljava/lang/AbstractStringBuilder;&apos; in &apos;java/lang/AbstractStringBuilder&apos;
   this:     rsi:rsi   = &apos;java/lang/AbstractStringBuilder&apos;
   parm0:    rdx:rdx   = &apos;java/lang/String&apos;
             [sp+0xf0]  (sp of caller)
  0x00007f580d10c2a0: 448b5608            mov       r10d,dword ptr [rsi+8h]
  0x00007f580d10c2a4: 49c1e203            shl       r10,3h
  0x00007f580d10c2a8: 4c3bd0              cmp       r10,rax
  0x00007f580d10c2ab: 0f85af9bf3ff        jne       7f580d045e60h
                                                ;   {runtime_call}
  0x00007f580d10c2b1: 6666660f1f840000000000 nop       word ptr [rax+rax+0h]
  0x00007f580d10c2bc: 66666690            nop
[Verified Entry Point]
  0x00007f580d10c2c0: 89842400c0feff      mov       dword ptr [rsp+0fffffffffffec000h],eax
  0x00007f580d10c2c7: 55                  push      rbp
  0x00007f580d10c2c8: 4881ece0000000      sub       rsp,0e0h
  0x00007f580d10c2cf: 4889b424b8000000    mov       qword ptr [rsp+0b8h],rsi
  0x00007f580d10c2d7: 48bf581ca10c587f0000 mov       rdi,7f580ca11c58h
                                                ;   {metadata(method data for {method} {0x00007f580c875e38} &apos;append&apos; &apos;(Ljava/lang/String;)Ljava/lang/AbstractStringBuilder;&apos; in &apos;java/lang/AbstractStringBuilder&apos;)}
  0x00007f580d10c2e1: 8b9fdc000000        mov       ebx,dword ptr [rdi+0dch]
  0x00007f580d10c2e7: 83c308              add       ebx,8h
  0x00007f580d10c2ea: 899fdc000000        mov       dword ptr [rdi+0dch],ebx
  0x00007f580d10c2f0: 48bf385e870c587f0000 mov       rdi,7f580c875e38h
                                                ;   {metadata({method} {0x00007f580c875e38} &apos;append&apos; &apos;(Ljava/lang/String;)Ljava/lang/AbstractStringBuilder;&apos; in &apos;java/lang/AbstractStringBuilder&apos;)}
  0x00007f580d10c2fa: 81e3f81f0000        and       ebx,1ff8h
  0x00007f580d10c300: 83fb00              cmp       ebx,0h
  0x00007f580d10c303: 0f842a050000        je        7f580d10c833h
                                                ;*aload_1
                                                ; - java.lang.AbstractStringBuilder::append@0 (line 445)

  0x00007f580d10c309: 4883fa00            cmp       rdx,0h
  0x00007f580d10c30d: 48bf581ca10c587f0000 mov       rdi,7f580ca11c58h
                                                ;   {metadata(method data for {method} {0x00007f580c875e38} &apos;append&apos; &apos;(Ljava/lang/String;)Ljava/lang/AbstractStringBuilder;&apos; in &apos;java/lang/AbstractStringBuilder&apos;)}
  0x00007f580d10c317: 48bb0801000000000000 mov       rbx,108h
  0x00007f580d10c321: 0f850a000000        jne       7f580d10c331h
  0x00007f580d10c327: 48bb1801000000000000 mov       rbx,118h
  0x00007f580d10c331: 488b041f            mov       rax,qword ptr [rdi+rbx]
  0x00007f580d10c335: 488d4001            lea       rax,[rax+1h]
  0x00007f580d10c339: 4889041f            mov       qword ptr [rdi+rbx],rax
  0x00007f580d10c33d: 0f84c0040000        je        7f580d10c803h
                                                ;*ifnonnull
                                                ; - java.lang.AbstractStringBuilder::append@1 (line 445)

  0x00007f580d10c343: 483b02              cmp       rax,qword ptr [rdx]
                                                ;*invokevirtual length
                                                ; - java.lang.AbstractStringBuilder::append@10 (line 447)
                                                ; implicit exception: dispatches to 0x00007f580d10c84a
  0x00007f580d10c346: 488bfa              mov       rdi,rdx
  0x00007f580d10c349: 48bb581ca10c587f0000 mov       rbx,7f580ca11c58h
                                                ;   {metadata(method data for {method} {0x00007f580c875e38} &apos;append&apos; &apos;(Ljava/lang/String;)Ljava/lang/AbstractStringBuilder;&apos; in &apos;java/lang/AbstractStringBuilder&apos;)}
  0x00007f580d10c353: 8b7f08              mov       edi,dword ptr [rdi+8h]
  0x00007f580d10c356: 48c1e703            shl       rdi,3h
  0x00007f580d10c35a: 483bbb40010000      cmp       rdi,qword ptr [rbx+140h]
  0x00007f580d10c361: 750d                jne       7f580d10c370h
  0x00007f580d10c363: 4883834801000001    add       qword ptr [rbx+148h],1h
  0x00007f580d10c36b: e966000000          jmp       7f580d10c3d6h
  0x00007f580d10c370: 483bbb50010000      cmp       rdi,qword ptr [rbx+150h]
  0x00007f580d10c377: 750d                jne       7f580d10c386h
  0x00007f580d10c379: 4883835801000001    add       qword ptr [rbx+158h],1h
  0x00007f580d10c381: e950000000          jmp       7f580d10c3d6h
  0x00007f580d10c386: 4881bb4001000000000000 cmp       qword ptr [rbx+140h],0h
  0x00007f580d10c391: 7517                jne       7f580d10c3aah
  0x00007f580d10c393: 4889bb40010000      mov       qword ptr [rbx+140h],rdi
  0x00007f580d10c39a: 48c7834801000001000000 mov       qword ptr [rbx+148h],1h
  0x00007f580d10c3a5: e92c000000          jmp       7f580d10c3d6h
  0x00007f580d10c3aa: 4881bb5001000000000000 cmp       qword ptr [rbx+150h],0h
  0x00007f580d10c3b5: 7517                jne       7f580d10c3ceh
  0x00007f580d10c3b7: 4889bb50010000      mov       qword ptr [rbx+150h],rdi
  0x00007f580d10c3be: 48c7835801000001000000 mov       qword ptr [rbx+158h],1h
  0x00007f580d10c3c9: e908000000          jmp       7f580d10c3d6h
  0x00007f580d10c3ce: 4883833801000001    add       qword ptr [rbx+138h],1h
  0x00007f580d10c3d6: 48bfa814a00c587f0000 mov       rdi,7f580ca014a8h
                                                ;   {metadata(method data for {method} {0x00007f580c803c60} &apos;length&apos; &apos;()I&apos; in &apos;java/lang/String&apos;)}
  0x00007f580d10c3e0: 8b9fdc000000        mov       ebx,dword ptr [rdi+0dch]
  0x00007f580d10c3e6: 83c308              add       ebx,8h
  0x00007f580d10c3e9: 899fdc000000        mov       dword ptr [rdi+0dch],ebx
  0x00007f580d10c3ef: 48bf603c800c587f0000 mov       rdi,7f580c803c60h
                                                ;   {metadata({method} {0x00007f580c803c60} &apos;length&apos; &apos;()I&apos; in &apos;java/lang/String&apos;)}
  0x00007f580d10c3f9: 81e3f8ff7f00        and       ebx,7ffff8h
  0x00007f580d10c3ff: 83fb00              cmp       ebx,0h
  0x00007f580d10c402: 0f8447040000        je        7f580d10c84fh
  0x00007f580d10c408: 8b7a0c              mov       edi,dword ptr [rdx+0ch]
  0x00007f580d10c40b: 48c1e703            shl       rdi,3h
                                                ;*getfield value
                                                ; - java.lang.String::length@1 (line 623)
                                                ; - java.lang.AbstractStringBuilder::append@10 (line 447)

  0x00007f580d10c40f: 8b7f0c              mov       edi,dword ptr [rdi+0ch]
                                                ;*arraylength
                                                ; - java.lang.String::length@4 (line 623)
                                                ; - java.lang.AbstractStringBuilder::append@10 (line 447)
                                                ; implicit exception: dispatches to 0x00007f580d10c866
  0x00007f580d10c412: 89bc24ac000000      mov       dword ptr [rsp+0ach],edi
  0x00007f580d10c419: 8b5e0c              mov       ebx,dword ptr [rsi+0ch]
                                                ;*getfield count
                                                ; - java.lang.AbstractStringBuilder::append@16 (line 448)

  0x00007f580d10c41c: 03df                add       ebx,edi
  0x00007f580d10c41e: 488bc6              mov       rax,rsi
  0x00007f580d10c421: 48b9581ca10c587f0000 mov       rcx,7f580ca11c58h
                                                ;   {metadata(method data for {method} {0x00007f580c875e38} &apos;append&apos; &apos;(Ljava/lang/String;)Ljava/lang/AbstractStringBuilder;&apos; in &apos;java/lang/AbstractStringBuilder&apos;)}
  0x00007f580d10c42b: 4883816801000001    add       qword ptr [rcx+168h],1h
  0x00007f580d10c433: 48b80818a00c587f0000 mov       rax,7f580ca01808h
                                                ;   {metadata(method data for {method} {0x00007f580c8754e0} &apos;ensureCapacityInternal&apos; &apos;(I)V&apos; in &apos;java/lang/AbstractStringBuilder&apos;)}
  0x00007f580d10c43d: 8b88dc000000        mov       ecx,dword ptr [rax+0dch]
  0x00007f580d10c443: 83c108              add       ecx,8h
  0x00007f580d10c446: 8988dc000000        mov       dword ptr [rax+0dch],ecx
  0x00007f580d10c44c: 48b8e054870c587f0000 mov       rax,7f580c8754e0h
                                                ;   {metadata({method} {0x00007f580c8754e0} &apos;ensureCapacityInternal&apos; &apos;(I)V&apos; in &apos;java/lang/AbstractStringBuilder&apos;)}
  0x00007f580d10c456: 81e1f8ff7f00        and       ecx,7ffff8h
  0x00007f580d10c45c: 83f900              cmp       ecx,0h
  0x00007f580d10c45f: 0f8406040000        je        7f580d10c86bh
  0x00007f580d10c465: 8b4610              mov       eax,dword ptr [rsi+10h]
  0x00007f580d10c468: 48c1e003            shl       rax,3h
                                                ;*getfield value
                                                ; - java.lang.AbstractStringBuilder::ensureCapacityInternal@2 (line 123)
                                                ; - java.lang.AbstractStringBuilder::append@21 (line 448)

  0x00007f580d10c46c: 8b480c              mov       ecx,dword ptr [rax+0ch]
                                                ;*arraylength
                                                ; - java.lang.AbstractStringBuilder::ensureCapacityInternal@5 (line 123)
                                                ; - java.lang.AbstractStringBuilder::append@21 (line 448)
                                                ; implicit exception: dispatches to 0x00007f580d10c882
  0x00007f580d10c46f: 4c8bc3              mov       r8,rbx
  0x00007f580d10c472: 442bc1              sub       r8d,ecx
  0x00007f580d10c475: 4183f800            cmp       r8d,0h
  0x00007f580d10c479: 49b80818a00c587f0000 mov       r8,7f580ca01808h
                                                ;   {metadata(method data for {method} {0x00007f580c8754e0} &apos;ensureCapacityInternal&apos; &apos;(I)V&apos; in &apos;java/lang/AbstractStringBuilder&apos;)}
  0x00007f580d10c483: 49b90801000000000000 mov       r9,108h
  0x00007f580d10c48d: 0f8e0a000000        jle       7f580d10c49dh
  0x00007f580d10c493: 49b91801000000000000 mov       r9,118h
  0x00007f580d10c49d: 4f8b1c08            mov       r11,qword ptr [r8+r9]
  0x00007f580d10c4a1: 4d8d5b01            lea       r11,[r11+1h]
  0x00007f580d10c4a5: 4f891c08            mov       qword ptr [r8+r9],r11
  0x00007f580d10c4a9: 0f8f0d000000        jnle      7f580d10c4bch
                                                ;*ifle
                                                ; - java.lang.AbstractStringBuilder::ensureCapacityInternal@7 (line 123)
                                                ; - java.lang.AbstractStringBuilder::append@21 (line 448)

  0x00007f580d10c4af: 48899424c0000000    mov       qword ptr [rsp+0c0h],rdx
  0x00007f580d10c4b7: e95f020000          jmp       7f580d10c71bh
                                                ;*return
                                                ; - java.lang.AbstractStringBuilder::ensureCapacityInternal@26 (line 127)
                                                ; - java.lang.AbstractStringBuilder::append@21 (line 448)

  0x00007f580d10c4bc: 898c24a8000000      mov       dword ptr [rsp+0a8h],ecx
  0x00007f580d10c4c3: 48898424b0000000    mov       qword ptr [rsp+0b0h],rax
  0x00007f580d10c4cb: 48899424c0000000    mov       qword ptr [rsp+0c0h],rdx
  0x00007f580d10c4d3: 4c8bc6              mov       r8,rsi
  0x00007f580d10c4d6: 49b90818a00c587f0000 mov       r9,7f580ca01808h
                                                ;   {metadata(method data for {method} {0x00007f580c8754e0} &apos;ensureCapacityInternal&apos; &apos;(I)V&apos; in &apos;java/lang/AbstractStringBuilder&apos;)}
  0x00007f580d10c4e0: 4983812801000001    add       qword ptr [r9+128h],1h
  0x00007f580d10c4e8: 488bd3              mov       rdx,rbx
  0x00007f580d10c4eb: 488bde              mov       rbx,rsi
  0x00007f580d10c4ee: 488bf3              mov       rsi,rbx
                                                ;*invokespecial newCapacity
                                                ; - java.lang.AbstractStringBuilder::ensureCapacityInternal@17 (line 125)
                                                ; - java.lang.AbstractStringBuilder::append@21 (line 448)

  0x00007f580d10c4f1: 90                  nop
  0x00007f580d10c4f2: 90                  nop
  0x00007f580d10c4f3: 90                  nop
  0x00007f580d10c4f4: 90                  nop
  0x00007f580d10c4f5: 90                  nop
  0x00007f580d10c4f6: 90                  nop
  0x00007f580d10c4f7: e8a49bf3ff          call      7f580d0460a0h
                                                ; OopMap{[184]=Oop [192]=Oop [176]=Oop off=604}
                                                ;*invokespecial newCapacity
                                                ; - java.lang.AbstractStringBuilder::ensureCapacityInternal@17 (line 125)
                                                ; - java.lang.AbstractStringBuilder::append@21 (line 448)
                                                ;   {optimized virtual_call}
  0x00007f580d10c4fc: 4c8bc0              mov       r8,rax
                                                ;*invokespecial newCapacity
                                                ; - java.lang.AbstractStringBuilder::ensureCapacityInternal@17 (line 125)
                                                ; - java.lang.AbstractStringBuilder::append@21 (line 448)

  0x00007f580d10c4ff: 48bb0818a00c587f0000 mov       rbx,7f580ca01808h
                                                ;   {metadata(method data for {method} {0x00007f580c8754e0} &apos;ensureCapacityInternal&apos; &apos;(I)V&apos; in &apos;java/lang/AbstractStringBuilder&apos;)}
  0x00007f580d10c509: 4883833801000001    add       qword ptr [rbx+138h],1h
  0x00007f580d10c511: 48bb481ba00c587f0000 mov       rbx,7f580ca01b48h
                                                ;   {metadata(method data for {method} {0x00007f580c91af20} &apos;copyOf&apos; &apos;([CI)[C&apos; in &apos;java/util/Arrays&apos;)}
  0x00007f580d10c51b: 8b93dc000000        mov       edx,dword ptr [rbx+0dch]
  0x00007f580d10c521: 83c208              add       edx,8h
  0x00007f580d10c524: 8993dc000000        mov       dword ptr [rbx+0dch],edx
  0x00007f580d10c52a: 48bb20af910c587f0000 mov       rbx,7f580c91af20h
                                                ;   {metadata({method} {0x00007f580c91af20} &apos;copyOf&apos; &apos;([CI)[C&apos; in &apos;java/util/Arrays&apos;)}
  0x00007f580d10c534: 81e2f8ff7f00        and       edx,7ffff8h
  0x00007f580d10c53a: 83fa00              cmp       edx,0h
  0x00007f580d10c53d: 0f8444030000        je        7f580d10c887h
  0x00007f580d10c543: 498bd8              mov       rbx,r8
  0x00007f580d10c546: 48ba080200c007000000 mov       rdx,7c0000208h
                                                ;   {metadata({type array char})}
  0x00007f580d10c550: 4863db              movsxd    rbx,ebx
  0x00007f580d10c553: 488bfb              mov       rdi,rbx
  0x00007f580d10c556: 4881fbffffff00      cmp       rbx,0ffffffh
  0x00007f580d10c55d: 0f873b030000        jnbe      7f580d10c89eh
  0x00007f580d10c563: 48be1700000000000000 mov       rsi,17h
  0x00007f580d10c56d: 488d345e            lea       rsi,[rsi+rbx*2]
  0x00007f580d10c571: 4883e6f8            and       rsi,0fffffffffffffff8h
  0x00007f580d10c575: 498b4760            mov       rax,qword ptr [r15+60h]
  0x00007f580d10c579: 488d3430            lea       rsi,[rax+rsi]
  0x00007f580d10c57d: 493b7770            cmp       rsi,qword ptr [r15+70h]
  0x00007f580d10c581: 0f8717030000        jnbe      7f580d10c89eh
  0x00007f580d10c587: 49897760            mov       qword ptr [r15+60h],rsi
  0x00007f580d10c58b: 482bf0              sub       rsi,rax
  0x00007f580d10c58e: 48c70001000000      mov       qword ptr [rax],1h
  0x00007f580d10c595: 488bca              mov       rcx,rdx
  0x00007f580d10c598: 48c1e903            shr       rcx,3h
  0x00007f580d10c59c: 894808              mov       dword ptr [rax+8h],ecx
  0x00007f580d10c59f: 89580c              mov       dword ptr [rax+0ch],ebx
  0x00007f580d10c5a2: 4883ee10            sub       rsi,10h
  0x00007f580d10c5a6: 0f8411000000        je        7f580d10c5bdh
  0x00007f580d10c5ac: 4833db              xor       rbx,rbx
  0x00007f580d10c5af: 48c1ee03            shr       rsi,3h
  0x00007f580d10c5b3: 48895cf008          mov       qword ptr [rax+rsi*8+8h],rbx
  0x00007f580d10c5b8: 48ffce              dec       rsi
  0x00007f580d10c5bb: 75f6                jne       7f580d10c5b3h
                                                ;*newarray
                                                ; - java.util.Arrays::copyOf@1 (line 3332)
                                                ; - java.lang.AbstractStringBuilder::ensureCapacityInternal@20 (line 124)
                                                ; - java.lang.AbstractStringBuilder::append@21 (line 448)

  0x00007f580d10c5bd: 48be481ba00c587f0000 mov       rsi,7f580ca01b48h
                                                ;   {metadata(method data for {method} {0x00007f580c91af20} &apos;copyOf&apos; &apos;([CI)[C&apos; in &apos;java/util/Arrays&apos;)}
  0x00007f580d10c5c7: 4883860801000001    add       qword ptr [rsi+108h],1h
  0x00007f580d10c5cf: 48bee89f9c0c587f0000 mov       rsi,7f580c9c9fe8h
                                                ;   {metadata(method data for {method} {0x00007f580c8f67d8} &apos;min&apos; &apos;(II)I&apos; in &apos;java/lang/Math&apos;)}
  0x00007f580d10c5d9: 8b96dc000000        mov       edx,dword ptr [rsi+0dch]
  0x00007f580d10c5df: 83c208              add       edx,8h
  0x00007f580d10c5e2: 8996dc000000        mov       dword ptr [rsi+0dch],edx
  0x00007f580d10c5e8: 48bed8678f0c587f0000 mov       rsi,7f580c8f67d8h
                                                ;   {metadata({method} {0x00007f580c8f67d8} &apos;min&apos; &apos;(II)I&apos; in &apos;java/lang/Math&apos;)}
  0x00007f580d10c5f2: 81e2f8ff7f00        and       edx,7ffff8h
  0x00007f580d10c5f8: 83fa00              cmp       edx,0h
  0x00007f580d10c5fb: 0f84a7020000        je        7f580d10c8a8h
  0x00007f580d10c601: 8b8c24a8000000      mov       ecx,dword ptr [rsp+0a8h]
  0x00007f580d10c608: 413bc8              cmp       ecx,r8d
  0x00007f580d10c60b: 48bee89f9c0c587f0000 mov       rsi,7f580c9c9fe8h
                                                ;   {metadata(method data for {method} {0x00007f580c8f67d8} &apos;min&apos; &apos;(II)I&apos; in &apos;java/lang/Math&apos;)}
  0x00007f580d10c615: 48ba0801000000000000 mov       rdx,108h
  0x00007f580d10c61f: 0f8f0a000000        jnle      7f580d10c62fh
  0x00007f580d10c625: 48ba1801000000000000 mov       rdx,118h
  0x00007f580d10c62f: 4c8b0c16            mov       r9,qword ptr [rsi+rdx]
  0x00007f580d10c633: 4d8d4901            lea       r9,[r9+1h]
  0x00007f580d10c637: 4c890c16            mov       qword ptr [rsi+rdx],r9
  0x00007f580d10c63b: 0f8f18000000        jnle      7f580d10c659h
                                                ;*if_icmpgt
                                                ; - java.lang.Math::min@2 (line 1336)
                                                ; - java.util.Arrays::copyOf@11 (line 3334)
                                                ; - java.lang.AbstractStringBuilder::ensureCapacityInternal@20 (line 124)
                                                ; - java.lang.AbstractStringBuilder::append@21 (line 448)

  0x00007f580d10c641: 48bee89f9c0c587f0000 mov       rsi,7f580c9c9fe8h
                                                ;   {metadata(method data for {method} {0x00007f580c8f67d8} &apos;min&apos; &apos;(II)I&apos; in &apos;java/lang/Math&apos;)}
  0x00007f580d10c64b: ff8628010000        inc       dword ptr [rsi+128h]
  0x00007f580d10c651: 4c8bc9              mov       r9,rcx
  0x00007f580d10c654: e903000000          jmp       7f580d10c65ch
                                                ;*goto
                                                ; - java.lang.Math::min@6 (line 1336)
                                                ; - java.util.Arrays::copyOf@11 (line 3334)
                                                ; - java.lang.AbstractStringBuilder::ensureCapacityInternal@20 (line 124)
                                                ; - java.lang.AbstractStringBuilder::append@21 (line 448)

  0x00007f580d10c659: 4d8bc8              mov       r9,r8
                                                ;*ireturn
                                                ; - java.lang.Math::min@10 (line 1336)
                                                ; - java.util.Arrays::copyOf@11 (line 3334)
                                                ; - java.lang.AbstractStringBuilder::ensureCapacityInternal@20 (line 124)
                                                ; - java.lang.AbstractStringBuilder::append@21 (line 448)

  0x00007f580d10c65c: 488bb424b0000000    mov       rsi,qword ptr [rsp+0b0h]
  0x00007f580d10c664: 48ba481ba00c587f0000 mov       rdx,7f580ca01b48h
                                                ;   {metadata(method data for {method} {0x00007f580c91af20} &apos;copyOf&apos; &apos;([CI)[C&apos; in &apos;java/util/Arrays&apos;)}
  0x00007f580d10c66e: 4883821801000001    add       qword ptr [rdx+118h],1h
  0x00007f580d10c676: ba00000000          mov       edx,0h
  0x00007f580d10c67b: 488bc8              mov       rcx,rax
  0x00007f580d10c67e: 41b800000000        mov       r8d,0h
  0x00007f580d10c684: 48898424c8000000    mov       qword ptr [rsp+0c8h],rax
  0x00007f580d10c68c: 4a8d3c0a            lea       rdi,[rdx+r9]
  0x00007f580d10c690: 3b7e0c              cmp       edi,dword ptr [rsi+0ch]
  0x00007f580d10c693: 0f8726020000        jnbe      7f580d10c8bfh
  0x00007f580d10c699: 4b8d3c08            lea       rdi,[r8+r9]
  0x00007f580d10c69d: 3b790c              cmp       edi,dword ptr [rcx+0ch]
  0x00007f580d10c6a0: 0f8719020000        jnbe      7f580d10c8bfh
  0x00007f580d10c6a6: 4585c9              test      r9d,r9d
  0x00007f580d10c6a9: 0f8c10020000        jl        7f580d10c8bfh
  0x00007f580d10c6af: 0f8436000000        je        7f580d10c6ebh
  0x00007f580d10c6b5: 4863d2              movsxd    rdx,edx
  0x00007f580d10c6b8: 4d63c0              movsxd    r8,r8d
  0x00007f580d10c6bb: 488d7c5610          lea       rdi,[rsi+rdx*2+10h]
  0x00007f580d10c6c0: 4a8d744110          lea       rsi,[rcx+r8*2+10h]
  0x00007f580d10c6c5: 498bd1              mov       rdx,r9
  0x00007f580d10c6c8: f7c40f000000        test      esp,0fh
  0x00007f580d10c6ce: 0f8412000000        je        7f580d10c6e6h
  0x00007f580d10c6d4: 4883ec08            sub       rsp,8h
  0x00007f580d10c6d8: e84361f4ff          call      7f580d052820h
                                                ;   {runtime_call}
  0x00007f580d10c6dd: 4883c408            add       rsp,8h
  0x00007f580d10c6e1: e905000000          jmp       7f580d10c6ebh
  0x00007f580d10c6e6: e83561f4ff          call      7f580d052820h
                                                ;*invokestatic arraycopy
                                                ; - java.util.Arrays::copyOf@14 (line 3333)
                                                ; - java.lang.AbstractStringBuilder::ensureCapacityInternal@20 (line 124)
                                                ; - java.lang.AbstractStringBuilder::append@21 (line 448)
                                                ;   {runtime_call}
  0x00007f580d10c6eb: 488b8424c8000000    mov       rax,qword ptr [rsp+0c8h]
  0x00007f580d10c6f3: 488bb424b8000000    mov       rsi,qword ptr [rsp+0b8h]
  0x00007f580d10c6fb: 4c8bd0              mov       r10,rax
  0x00007f580d10c6fe: 49c1ea03            shr       r10,3h
  0x00007f580d10c702: 44895610            mov       dword ptr [rsi+10h],r10d
  0x00007f580d10c706: 488bd6              mov       rdx,rsi
  0x00007f580d10c709: 48c1ea09            shr       rdx,9h
  0x00007f580d10c70d: 48b900a07a1d587f0000 mov       rcx,7f581d7aa000h
  0x00007f580d10c717: c6040a00            mov       byte ptr [rdx+rcx],0h
                                                ;*putfield value
                                                ; - java.lang.AbstractStringBuilder::ensureCapacityInternal@23 (line 124)
                                                ; - java.lang.AbstractStringBuilder::append@21 (line 448)

  0x00007f580d10c71b: 8b9c24ac000000      mov       ebx,dword ptr [rsp+0ach]
  0x00007f580d10c722: 488bbc24c0000000    mov       rdi,qword ptr [rsp+0c0h]
  0x00007f580d10c72a: 448b4610            mov       r8d,dword ptr [rsi+10h]
  0x00007f580d10c72e: 49c1e003            shl       r8,3h
                                                ;*getfield value
                                                ; - java.lang.AbstractStringBuilder::append@28 (line 449)

  0x00007f580d10c732: 448b4e0c            mov       r9d,dword ptr [rsi+0ch]
                                                ;*getfield count
                                                ; - java.lang.AbstractStringBuilder::append@32 (line 449)

  0x00007f580d10c736: 488bd7              mov       rdx,rdi
  0x00007f580d10c739: 48b9581ca10c587f0000 mov       rcx,7f580ca11c58h
                                                ;   {metadata(method data for {method} {0x00007f580c875e38} &apos;append&apos; &apos;(Ljava/lang/String;)Ljava/lang/AbstractStringBuilder;&apos; in &apos;java/lang/AbstractStringBuilder&apos;)}
  0x00007f580d10c743: 8b5208              mov       edx,dword ptr [rdx+8h]
  0x00007f580d10c746: 48c1e203            shl       rdx,3h
  0x00007f580d10c74a: 483b9180010000      cmp       rdx,qword ptr [rcx+180h]
  0x00007f580d10c751: 750d                jne       7f580d10c760h
  0x00007f580d10c753: 4883818801000001    add       qword ptr [rcx+188h],1h
  0x00007f580d10c75b: e966000000          jmp       7f580d10c7c6h
  0x00007f580d10c760: 483b9190010000      cmp       rdx,qword ptr [rcx+190h]
  0x00007f580d10c767: 750d                jne       7f580d10c776h
  0x00007f580d10c769: 4883819801000001    add       qword ptr [rcx+198h],1h
  0x00007f580d10c771: e950000000          jmp       7f580d10c7c6h
  0x00007f580d10c776: 4881b98001000000000000 cmp       qword ptr [rcx+180h],0h
  0x00007f580d10c781: 7517                jne       7f580d10c79ah
  0x00007f580d10c783: 48899180010000      mov       qword ptr [rcx+180h],rdx
  0x00007f580d10c78a: 48c7818801000001000000 mov       qword ptr [rcx+188h],1h
  0x00007f580d10c795: e92c000000          jmp       7f580d10c7c6h
  0x00007f580d10c79a: 4881b99001000000000000 cmp       qword ptr [rcx+190h],0h
  0x00007f580d10c7a5: 7517                jne       7f580d10c7beh
  0x00007f580d10c7a7: 48899190010000      mov       qword ptr [rcx+190h],rdx
  0x00007f580d10c7ae: 48c7819801000001000000 mov       qword ptr [rcx+198h],1h
  0x00007f580d10c7b9: e908000000          jmp       7f580d10c7c6h
  0x00007f580d10c7be: 4883817801000001    add       qword ptr [rcx+178h],1h
  0x00007f580d10c7c6: ba00000000          mov       edx,0h
  0x00007f580d10c7cb: 488bcb              mov       rcx,rbx
  0x00007f580d10c7ce: 488bf7              mov       rsi,rdi
                                                ;*invokevirtual getChars
                                                ; - java.lang.AbstractStringBuilder::append@35 (line 449)

  0x00007f580d10c7d1: 90                  nop
  0x00007f580d10c7d2: 90                  nop
  0x00007f580d10c7d3: 90                  nop
  0x00007f580d10c7d4: 90                  nop
  0x00007f580d10c7d5: 90                  nop
  0x00007f580d10c7d6: 90                  nop
  0x00007f580d10c7d7: e8c498f3ff          call      7f580d0460a0h
                                                ; OopMap{[184]=Oop off=1340}
                                                ;*invokevirtual getChars
                                                ; - java.lang.AbstractStringBuilder::append@35 (line 449)
                                                ;   {optimized virtual_call}
  0x00007f580d10c7dc: 488bb424b8000000    mov       rsi,qword ptr [rsp+0b8h]
  0x00007f580d10c7e4: 8b460c              mov       eax,dword ptr [rsi+0ch]
                                                ;*getfield count
                                                ; - java.lang.AbstractStringBuilder::append@40 (line 450)

  0x00007f580d10c7e7: 038424ac000000      add       eax,dword ptr [rsp+0ach]
  0x00007f580d10c7ee: 89460c              mov       dword ptr [rsi+0ch],eax
                                                ;*putfield count
                                                ; - java.lang.AbstractStringBuilder::append@45 (line 450)

  0x00007f580d10c7f1: 488bc6              mov       rax,rsi
  0x00007f580d10c7f4: 4881c4e0000000      add       rsp,0e0h
  0x00007f580d10c7fb: 5d                  pop       rbp
  0x00007f580d10c7fc: 8505fe688d17        test      dword ptr [7f58249e3100h],eax
                                                ;   {poll_return}
  0x00007f580d10c802: c3                  ret   ;*areturn
                                                ; - java.lang.AbstractStringBuilder::append@49 (line 451)

  0x00007f580d10c803: 488bfe              mov       rdi,rsi
  0x00007f580d10c806: 48bb581ca10c587f0000 mov       rbx,7f580ca11c58h
                                                ;   {metadata(method data for {method} {0x00007f580c875e38} &apos;append&apos; &apos;(Ljava/lang/String;)Ljava/lang/AbstractStringBuilder;&apos; in &apos;java/lang/AbstractStringBuilder&apos;)}
  0x00007f580d10c810: 4883832801000001    add       qword ptr [rbx+128h],1h
  0x00007f580d10c818: 90                  nop
  0x00007f580d10c819: 90                  nop
  0x00007f580d10c81a: 90                  nop
  0x00007f580d10c81b: 90                  nop
  0x00007f580d10c81c: 90                  nop
  0x00007f580d10c81d: 90                  nop
  0x00007f580d10c81e: 90                  nop
  0x00007f580d10c81f: e87c98f3ff          call      7f580d0460a0h
                                                ; OopMap{off=1412}
                                                ;*invokespecial appendNull
                                                ; - java.lang.AbstractStringBuilder::append@5 (line 446)
                                                ;   {optimized virtual_call}
  0x00007f580d10c824: 4881c4e0000000      add       rsp,0e0h
  0x00007f580d10c82b: 5d                  pop       rbp
  0x00007f580d10c82c: 8505ce688d17        test      dword ptr [7f58249e3100h],eax
                                                ;   {poll_return}
  0x00007f580d10c832: c3                  ret
  0x00007f580d10c833: 48897c2408          mov       qword ptr [rsp+8h],rdi
  0x00007f580d10c838: 48c70424ffffffff    mov       qword ptr [rsp],0ffffffffffffffffh
  0x00007f580d10c840: e8db26ffff          call      7f580d0fef20h
                                                ; OopMap{rsi=Oop [184]=Oop rdx=Oop off=1445}
                                                ;*synchronization entry
                                                ; - java.lang.AbstractStringBuilder::append@-1 (line 445)
                                                ;   {runtime_call}
  0x00007f580d10c845: e9bffaffff          jmp       7f580d10c309h
  0x00007f580d10c84a: e8b120f6ff          call      7f580d06e900h
                                                ; OopMap{rsi=Oop [184]=Oop rdx=Oop off=1455}
                                                ;*invokevirtual length
                                                ; - java.lang.AbstractStringBuilder::append@10 (line 447)
                                                ;   {runtime_call}
  0x00007f580d10c84f: 48897c2408          mov       qword ptr [rsp+8h],rdi
  0x00007f580d10c854: 48c70424ffffffff    mov       qword ptr [rsp],0ffffffffffffffffh
  0x00007f580d10c85c: e8bf26ffff          call      7f580d0fef20h
                                                ; OopMap{rsi=Oop [184]=Oop rdx=Oop off=1473}
                                                ;*synchronization entry
                                                ; - java.lang.String::length@-1 (line 623)
                                                ; - java.lang.AbstractStringBuilder::append@10 (line 447)
                                                ;   {runtime_call}
  0x00007f580d10c861: e9a2fbffff          jmp       7f580d10c408h
  0x00007f580d10c866: e89520f6ff          call      7f580d06e900h
                                                ; OopMap{rsi=Oop [184]=Oop rdx=Oop off=1483}
                                                ;*arraylength
                                                ; - java.lang.String::length@4 (line 623)
                                                ; - java.lang.AbstractStringBuilder::append@10 (line 447)
                                                ;   {runtime_call}
  0x00007f580d10c86b: 4889442408          mov       qword ptr [rsp+8h],rax
  0x00007f580d10c870: 48c70424ffffffff    mov       qword ptr [rsp],0ffffffffffffffffh
  0x00007f580d10c878: e8a326ffff          call      7f580d0fef20h
                                                ; OopMap{rsi=Oop [184]=Oop rdx=Oop off=1501}
                                                ;*synchronization entry
                                                ; - java.lang.AbstractStringBuilder::ensureCapacityInternal@-1 (line 123)
                                                ; - java.lang.AbstractStringBuilder::append@21 (line 448)
                                                ;   {runtime_call}
  0x00007f580d10c87d: e9e3fbffff          jmp       7f580d10c465h
  0x00007f580d10c882: e87920f6ff          call      7f580d06e900h
                                                ; OopMap{rsi=Oop [184]=Oop rdx=Oop rax=Oop off=1511}
                                                ;*arraylength
                                                ; - java.lang.AbstractStringBuilder::ensureCapacityInternal@5 (line 123)
                                                ; - java.lang.AbstractStringBuilder::append@21 (line 448)
                                                ;   {runtime_call}
  0x00007f580d10c887: 48895c2408          mov       qword ptr [rsp+8h],rbx
  0x00007f580d10c88c: 48c70424ffffffff    mov       qword ptr [rsp],0ffffffffffffffffh
  0x00007f580d10c894: e88726ffff          call      7f580d0fef20h
                                                ; OopMap{[184]=Oop [192]=Oop [176]=Oop off=1529}
                                                ;*synchronization entry
                                                ; - java.util.Arrays::copyOf@-1 (line 3332)
                                                ; - java.lang.AbstractStringBuilder::ensureCapacityInternal@20 (line 124)
                                                ; - java.lang.AbstractStringBuilder::append@21 (line 448)
                                                ;   {runtime_call}
  0x00007f580d10c899: e9a5fcffff          jmp       7f580d10c543h
  0x00007f580d10c89e: e8bd0df6ff          call      7f580d06d660h
                                                ; OopMap{[184]=Oop [192]=Oop [176]=Oop off=1539}
                                                ;*newarray
                                                ; - java.util.Arrays::copyOf@1 (line 3332)
                                                ; - java.lang.AbstractStringBuilder::ensureCapacityInternal@20 (line 124)
                                                ; - java.lang.AbstractStringBuilder::append@21 (line 448)
                                                ;   {runtime_call}
  0x00007f580d10c8a3: e915fdffff          jmp       7f580d10c5bdh
  0x00007f580d10c8a8: 4889742408          mov       qword ptr [rsp+8h],rsi
  0x00007f580d10c8ad: 48c70424ffffffff    mov       qword ptr [rsp],0ffffffffffffffffh
  0x00007f580d10c8b5: e86626ffff          call      7f580d0fef20h
                                                ; OopMap{[184]=Oop [192]=Oop [176]=Oop rax=Oop off=1562}
                                                ;*synchronization entry
                                                ; - java.lang.Math::min@-1 (line 1336)
                                                ; - java.util.Arrays::copyOf@11 (line 3334)
                                                ; - java.lang.AbstractStringBuilder::ensureCapacityInternal@20 (line 124)
                                                ; - java.lang.AbstractStringBuilder::append@21 (line 448)
                                                ;   {runtime_call}
  0x00007f580d10c8ba: e942fdffff          jmp       7f580d10c601h
  0x00007f580d10c8bf: e85c9cf3ff          call      7f580d046520h
                                                ; OopMap{[184]=Oop [192]=Oop [200]=Oop off=1572}
                                                ;*invokestatic arraycopy
                                                ; - java.util.Arrays::copyOf@14 (line 3333)
                                                ; - java.lang.AbstractStringBuilder::ensureCapacityInternal@20 (line 124)
                                                ; - java.lang.AbstractStringBuilder::append@21 (line 448)
                                                ;   {static_call}
  0x00007f580d10c8c4: e922feffff          jmp       7f580d10c6ebh
  0x00007f580d10c8c9: 90                  nop
  0x00007f580d10c8ca: 90                  nop
  0x00007f580d10c8cb: 498b87a8020000      mov       rax,qword ptr [r15+2a8h]
  0x00007f580d10c8d2: 49ba0000000000000000 mov       r10,0h
  0x00007f580d10c8dc: 4d8997a8020000      mov       qword ptr [r15+2a8h],r10
  0x00007f580d10c8e3: 49ba0000000000000000 mov       r10,0h
  0x00007f580d10c8ed: 4d8997b0020000      mov       qword ptr [r15+2b0h],r10
  0x00007f580d10c8f4: 4881c4e0000000      add       rsp,0e0h
  0x00007f580d10c8fb: 5d                  pop       rbp
  0x00007f580d10c8fc: e95f2bf6ff          jmp       7f580d06f460h
                                                ;   {runtime_call}
  0x00007f580d10c901: f4                  hlt
  0x00007f580d10c902: f4                  hlt
  0x00007f580d10c903: f4                  hlt
  0x00007f580d10c904: f4                  hlt
  0x00007f580d10c905: f4                  hlt
  0x00007f580d10c906: f4                  hlt
  0x00007f580d10c907: f4                  hlt
  0x00007f580d10c908: f4                  hlt
  0x00007f580d10c909: f4                  hlt
  0x00007f580d10c90a: f4                  hlt
  0x00007f580d10c90b: f4                  hlt
  0x00007f580d10c90c: f4                  hlt
  0x00007f580d10c90d: f4                  hlt
  0x00007f580d10c90e: f4                  hlt
  0x00007f580d10c90f: f4                  hlt
  0x00007f580d10c910: f4                  hlt
  0x00007f580d10c911: f4                  hlt
  0x00007f580d10c912: f4                  hlt
  0x00007f580d10c913: f4                  hlt
  0x00007f580d10c914: f4                  hlt
  0x00007f580d10c915: f4                  hlt
  0x00007f580d10c916: f4                  hlt
  0x00007f580d10c917: f4                  hlt
  0x00007f580d10c918: f4                  hlt
  0x00007f580d10c919: f4                  hlt
  0x00007f580d10c91a: f4                  hlt
  0x00007f580d10c91b: f4                  hlt
  0x00007f580d10c91c: f4                  hlt
  0x00007f580d10c91d: f4                  hlt
  0x00007f580d10c91e: f4                  hlt
  0x00007f580d10c91f: f4                  hlt
[Stub Code]
  0x00007f580d10c920: 90                  nop   ;   {no_reloc}
  0x00007f580d10c921: 90                  nop
  0x00007f580d10c922: 90                  nop
  0x00007f580d10c923: 90                  nop
  0x00007f580d10c924: 90                  nop
  0x00007f580d10c925: 48bb0000000000000000 mov       rbx,0h
                                                ;   {static_stub}
  0x00007f580d10c92f: e9fbffffff          jmp       7f580d10c92fh
                                                ;   {runtime_call}
  0x00007f580d10c934: 90                  nop
  0x00007f580d10c935: 48bb0000000000000000 mov       rbx,0h
                                                ;   {static_stub}
  0x00007f580d10c93f: e9fbffffff          jmp       7f580d10c93fh
                                                ;   {runtime_call}
  0x00007f580d10c944: 90                  nop
  0x00007f580d10c945: 48bb0000000000000000 mov       rbx,0h
                                                ;   {static_stub}
  0x00007f580d10c94f: e9fbffffff          jmp       7f580d10c94fh
                                                ;   {runtime_call}
  0x00007f580d10c954: 90                  nop
  0x00007f580d10c955: 48bb0000000000000000 mov       rbx,0h
                                                ;   {static_stub}
  0x00007f580d10c95f: e9fbffffff          jmp       7f580d10c95fh
                                                ;   {runtime_call}
[Exception Handler]
  0x00007f580d10c964: e8f7fdfeff          call      7f580d0fc760h
                                                ;   {runtime_call}
  0x00007f580d10c969: 48896424d8          mov       qword ptr [rsp+0ffffffffffffffd8h],rsp
  0x00007f580d10c96e: 4881ec80000000      sub       rsp,80h
  0x00007f580d10c975: 4889442478          mov       qword ptr [rsp+78h],rax
  0x00007f580d10c97a: 48894c2470          mov       qword ptr [rsp+70h],rcx
  0x00007f580d10c97f: 4889542468          mov       qword ptr [rsp+68h],rdx
  0x00007f580d10c984: 48895c2460          mov       qword ptr [rsp+60h],rbx
  0x00007f580d10c989: 48896c2450          mov       qword ptr [rsp+50h],rbp
  0x00007f580d10c98e: 4889742448          mov       qword ptr [rsp+48h],rsi
  0x00007f580d10c993: 48897c2440          mov       qword ptr [rsp+40h],rdi
  0x00007f580d10c998: 4c89442438          mov       qword ptr [rsp+38h],r8
  0x00007f580d10c99d: 4c894c2430          mov       qword ptr [rsp+30h],r9
  0x00007f580d10c9a2: 4c89542428          mov       qword ptr [rsp+28h],r10
  0x00007f580d10c9a7: 4c895c2420          mov       qword ptr [rsp+20h],r11
  0x00007f580d10c9ac: 4c89642418          mov       qword ptr [rsp+18h],r12
  0x00007f580d10c9b1: 4c896c2410          mov       qword ptr [rsp+10h],r13
  0x00007f580d10c9b6: 4c89742408          mov       qword ptr [rsp+8h],r14
  0x00007f580d10c9bb: 4c893c24            mov       qword ptr [rsp],r15
  0x00007f580d10c9bf: 48bff6598c23587f0000 mov       rdi,7f58238c59f6h
                                                ;   {external_word}
  0x00007f580d10c9c9: 48be69c9100d587f0000 mov       rsi,7f580d10c969h
                                                ;   {internal_word}
  0x00007f580d10c9d3: 488bd4              mov       rdx,rsp
  0x00007f580d10c9d6: 4883e4f0            and       rsp,0fffffffffffffff0h
  0x00007f580d10c9da: e881c84b16          call      7f58235c9260h
                                                ;   {runtime_call}
  0x00007f580d10c9df: f4                  hlt
[Deopt Handler Code]
  0x00007f580d10c9e0: 49bae0c9100d587f0000 mov       r10,7f580d10c9e0h
                                                ;   {section_word}
  0x00007f580d10c9ea: 4152                push      r10
  0x00007f580d10c9ec: e90fabf3ff          jmp       7f580d047500h
                                                ;   {runtime_call}
  0x00007f580d10c9f1: f4                  hlt
  0x00007f580d10c9f2: f4                  hlt
  0x00007f580d10c9f3: f4                  hlt
  0x00007f580d10c9f4: f4                  hlt
  0x00007f580d10c9f5: f4                  hlt
  0x00007f580d10c9f6: f4                  hlt
  0x00007f580d10c9f7: f4                  hlt
<nmethod compile_id='10' compiler='C1' level='3' entry='0x00007f580d10c2a0' size='3456' address='0x00007f580d10c0d0' relocation_offset='296' insts_offset='464' stub_offset='2128' scopes_data_offset='2384' scopes_pcs_offset='2792' dependencies_offset='3416' nul_chk_table_offset='3424' method='java/lang/AbstractStringBuilder append (Ljava/lang/String;)Ljava/lang/AbstractStringBuilder;' bytes='50' count='259' iicount='259' stamp='0.326'/>
Decoding compiled method 0x00007f580d10d690:
Code:
RIP: 0x7f580d10d840 Code size: 0x00000438
[Entry Point]
[Constants]
   {method} {0x00007f580c804208} &apos;getChars&apos; &apos;(II[CI)V&apos; in &apos;java/lang/String&apos;
   this:     rsi:rsi   = &apos;java/lang/String&apos;
   parm0:    rdx       = int
   parm1:    rcx       = int
   parm2:    r8:r8     = &apos;[C&apos;
   parm3:    r9        = int
             [sp+0x70]  (sp of caller)
  0x00007f580d10d840: 448b5608            mov       r10d,dword ptr [rsi+8h]
  0x00007f580d10d844: 49c1e203            shl       r10,3h
  0x00007f580d10d848: 4c3bd0              cmp       r10,rax
  0x00007f580d10d84b: 0f850f86f3ff        jne       7f580d045e60h
                                                ;   {runtime_call}
  0x00007f580d10d851: 6666660f1f840000000000 nop       word ptr [rax+rax+0h]
  0x00007f580d10d85c: 66666690            nop
[Verified Entry Point]
  0x00007f580d10d860: 89842400c0feff      mov       dword ptr [rsp+0fffffffffffec000h],eax
  0x00007f580d10d867: 55                  push      rbp
  0x00007f580d10d868: 4883ec60            sub       rsp,60h
  0x00007f580d10d86c: 488bfa              mov       rdi,rdx
  0x00007f580d10d86f: 48ba781fa10c587f0000 mov       rdx,7f580ca11f78h
                                                ;   {metadata(method data for {method} {0x00007f580c804208} &apos;getChars&apos; &apos;(II[CI)V&apos; in &apos;java/lang/String&apos;)}
  0x00007f580d10d879: 8b9adc000000        mov       ebx,dword ptr [rdx+0dch]
  0x00007f580d10d87f: 83c308              add       ebx,8h
  0x00007f580d10d882: 899adc000000        mov       dword ptr [rdx+0dch],ebx
  0x00007f580d10d888: 48ba0842800c587f0000 mov       rdx,7f580c804208h
                                                ;   {metadata({method} {0x00007f580c804208} &apos;getChars&apos; &apos;(II[CI)V&apos; in &apos;java/lang/String&apos;)}
  0x00007f580d10d892: 81e3f81f0000        and       ebx,1ff8h
  0x00007f580d10d898: 83fb00              cmp       ebx,0h
  0x00007f580d10d89b: 0f8425020000        je        7f580d10dac6h
                                                ;*iload_1
                                                ; - java.lang.String::getChars@0 (line 817)

  0x00007f580d10d8a1: 83ff00              cmp       edi,0h
  0x00007f580d10d8a4: 48ba781fa10c587f0000 mov       rdx,7f580ca11f78h
                                                ;   {metadata(method data for {method} {0x00007f580c804208} &apos;getChars&apos; &apos;(II[CI)V&apos; in &apos;java/lang/String&apos;)}
  0x00007f580d10d8ae: 48bb0801000000000000 mov       rbx,108h
  0x00007f580d10d8b8: 0f8d0a000000        jnl       7f580d10d8c8h
  0x00007f580d10d8be: 48bb1801000000000000 mov       rbx,118h
  0x00007f580d10d8c8: 488b041a            mov       rax,qword ptr [rdx+rbx]
  0x00007f580d10d8cc: 488d4001            lea       rax,[rax+1h]
  0x00007f580d10d8d0: 4889041a            mov       qword ptr [rdx+rbx],rax
  0x00007f580d10d8d4: 0f8cac010000        jl        7f580d10da86h
                                                ;*ifge
                                                ; - java.lang.String::getChars@1 (line 817)

  0x00007f580d10d8da: 8b760c              mov       esi,dword ptr [rsi+0ch]
  0x00007f580d10d8dd: 48c1e603            shl       rsi,3h
                                                ;*getfield value
                                                ; - java.lang.String::getChars@15 (line 820)

  0x00007f580d10d8e1: 8b560c              mov       edx,dword ptr [rsi+0ch]
                                                ;*arraylength
                                                ; - java.lang.String::getChars@18 (line 820)
                                                ; implicit exception: dispatches to 0x00007f580d10dadd
  0x00007f580d10d8e4: 3bca                cmp       ecx,edx
  0x00007f580d10d8e6: 48ba781fa10c587f0000 mov       rdx,7f580ca11f78h
                                                ;   {metadata(method data for {method} {0x00007f580c804208} &apos;getChars&apos; &apos;(II[CI)V&apos; in &apos;java/lang/String&apos;)}
  0x00007f580d10d8f0: 48bb3801000000000000 mov       rbx,138h
  0x00007f580d10d8fa: 0f8e0a000000        jle       7f580d10d90ah
  0x00007f580d10d900: 48bb4801000000000000 mov       rbx,148h
  0x00007f580d10d90a: 488b041a            mov       rax,qword ptr [rdx+rbx]
  0x00007f580d10d90e: 488d4001            lea       rax,[rax+1h]
  0x00007f580d10d912: 4889041a            mov       qword ptr [rdx+rbx],rax
  0x00007f580d10d916: 0f8f2a010000        jnle      7f580d10da46h
                                                ;*if_icmple
                                                ; - java.lang.String::getChars@19 (line 820)

  0x00007f580d10d91c: 3bf9                cmp       edi,ecx
  0x00007f580d10d91e: 48ba781fa10c587f0000 mov       rdx,7f580ca11f78h
                                                ;   {metadata(method data for {method} {0x00007f580c804208} &apos;getChars&apos; &apos;(II[CI)V&apos; in &apos;java/lang/String&apos;)}
  0x00007f580d10d928: 48bb6801000000000000 mov       rbx,168h
  0x00007f580d10d932: 0f8e0a000000        jle       7f580d10d942h
  0x00007f580d10d938: 48bb7801000000000000 mov       rbx,178h
  0x00007f580d10d942: 488b041a            mov       rax,qword ptr [rdx+rbx]
  0x00007f580d10d946: 488d4001            lea       rax,[rax+1h]
  0x00007f580d10d94a: 4889041a            mov       qword ptr [rdx+rbx],rax
  0x00007f580d10d94e: 0f8fa8000000        jnle      7f580d10d9fch
                                                ;*if_icmple
                                                ; - java.lang.String::getChars@33 (line 823)

  0x00007f580d10d954: 48ba781fa10c587f0000 mov       rdx,7f580ca11f78h
                                                ;   {metadata(method data for {method} {0x00007f580c804208} &apos;getChars&apos; &apos;(II[CI)V&apos; in &apos;java/lang/String&apos;)}
  0x00007f580d10d95e: 4883829801000001    add       qword ptr [rdx+198h],1h
  0x00007f580d10d966: 488bd9              mov       rbx,rcx
  0x00007f580d10d969: 2bdf                sub       ebx,edi
  0x00007f580d10d96b: 488bd7              mov       rdx,rdi
  0x00007f580d10d96e: 498bc8              mov       rcx,r8
  0x00007f580d10d971: 4d8bc1              mov       r8,r9
  0x00007f580d10d974: 4c8bcb              mov       r9,rbx
  0x00007f580d10d977: 4885c9              test      rcx,rcx
  0x00007f580d10d97a: 0f8462010000        je        7f580d10dae2h
  0x00007f580d10d980: 85d2                test      edx,edx
  0x00007f580d10d982: 0f8c5a010000        jl        7f580d10dae2h
  0x00007f580d10d988: 4585c0              test      r8d,r8d
  0x00007f580d10d98b: 0f8c51010000        jl        7f580d10dae2h
  0x00007f580d10d991: 4a8d3c0a            lea       rdi,[rdx+r9]
  0x00007f580d10d995: 3b7e0c              cmp       edi,dword ptr [rsi+0ch]
  0x00007f580d10d998: 0f8744010000        jnbe      7f580d10dae2h
  0x00007f580d10d99e: 4b8d3c08            lea       rdi,[r8+r9]
  0x00007f580d10d9a2: 3b790c              cmp       edi,dword ptr [rcx+0ch]
  0x00007f580d10d9a5: 0f8737010000        jnbe      7f580d10dae2h
  0x00007f580d10d9ab: 4585c9              test      r9d,r9d
  0x00007f580d10d9ae: 0f8c2e010000        jl        7f580d10dae2h
  0x00007f580d10d9b4: 0f8436000000        je        7f580d10d9f0h
  0x00007f580d10d9ba: 4863d2              movsxd    rdx,edx
  0x00007f580d10d9bd: 4d63c0              movsxd    r8,r8d
  0x00007f580d10d9c0: 488d7c5610          lea       rdi,[rsi+rdx*2+10h]
  0x00007f580d10d9c5: 4a8d744110          lea       rsi,[rcx+r8*2+10h]
  0x00007f580d10d9ca: 498bd1              mov       rdx,r9
  0x00007f580d10d9cd: f7c40f000000        test      esp,0fh
  0x00007f580d10d9d3: 0f8412000000        je        7f580d10d9ebh
  0x00007f580d10d9d9: 4883ec08            sub       rsp,8h
  0x00007f580d10d9dd: e81e4ff4ff          call      7f580d052900h
                                                ;   {runtime_call}
  0x00007f580d10d9e2: 4883c408            add       rsp,8h
  0x00007f580d10d9e6: e905000000          jmp       7f580d10d9f0h
  0x00007f580d10d9eb: e8104ff4ff          call      7f580d052900h
                                                ;*invokestatic arraycopy
                                                ; - java.lang.String::getChars@58 (line 826)
                                                ;   {runtime_call}
  0x00007f580d10d9f0: 4883c460            add       rsp,60h
  0x00007f580d10d9f4: 5d                  pop       rbp
  0x00007f580d10d9f5: 850505578d17        test      dword ptr [7f58249e3100h],eax
                                                ;   {poll_return}
  0x00007f580d10d9fb: c3                  ret   ;*return
                                                ; - java.lang.String::getChars@61 (line 827)

  0x00007f580d10d9fc: 0f1f4000            nop       dword ptr [rax+0h]
  0x00007f580d10da00: e9fb000000          jmp       7f580d10db00h
                                                ;   {no_reloc}
  0x00007f580d10da05: 0000                add       byte ptr [rax],al
  0x00007f580d10da07: 0000                add       byte ptr [rax],al
  0x00007f580d10da09: 00e9                add       cl,ch
  0x00007f580d10da0b: fb                  sti
  0x00007f580d10da0c: 0000                add       byte ptr [rax],al
  0x00007f580d10da0e: 00488b              add       byte ptr [rax+0ffffffffffffff8bh],cl
                                                ;*new  ; - java.lang.String::getChars@36 (line 824)

  0x00007f580d10da11: d048be              ror       byte ptr [rax+0ffffffffffffffbeh],1h
                                                ;   {metadata(method data for {method} {0x00007f580c804208} &apos;getChars&apos; &apos;(II[CI)V&apos; in &apos;java/lang/String&apos;)}
  0x00007f580d10da14: 781f                js        7f580d10da35h
  0x00007f580d10da16: a10c587f0000488386  mov       eax,dword ptr [86834800007f580ch]
  0x00007f580d10da1f: 8801                mov       byte ptr [rcx],al
  0x00007f580d10da21: 0000                add       byte ptr [rax],al
  0x00007f580d10da23: 012b                add       dword ptr [rbx],ebp
  0x00007f580d10da25: cf                  iretd
  0x00007f580d10da26: 488bd1              mov       rdx,rcx
  0x00007f580d10da29: 488bf0              mov       rsi,rax
                                                ;*invokespecial &lt;init&gt;
                                                ; - java.lang.String::getChars@43 (line 824)

  0x00007f580d10da2c: 4889442438          mov       qword ptr [rsp+38h],rax
  0x00007f580d10da31: 90                  nop
  0x00007f580d10da32: 90                  nop
  0x00007f580d10da33: 90                  nop
  0x00007f580d10da34: 90                  nop
  0x00007f580d10da35: 90                  nop
  0x00007f580d10da36: 90                  nop
  0x00007f580d10da37: e86486f3ff          call      7f580d0460a0h
                                                ; OopMap{[56]=Oop off=508}
                                                ;*invokespecial &lt;init&gt;
                                                ; - java.lang.String::getChars@43 (line 824)
                                                ;   {optimized virtual_call}
  0x00007f580d10da3c: 488b442438          mov       rax,qword ptr [rsp+38h]
  0x00007f580d10da41: e948010000          jmp       7f580d10db8eh
                                                ;*athrow
                                                ; - java.lang.String::getChars@46 (line 824)

  0x00007f580d10da46: 6690                nop
  0x00007f580d10da48: e9d9000000          jmp       7f580d10db26h
                                                ;   {no_reloc}
  0x00007f580d10da4d: 0000                add       byte ptr [rax],al
  0x00007f580d10da4f: 0000                add       byte ptr [rax],al
  0x00007f580d10da51: 00e9                add       cl,ch
  0x00007f580d10da53: d900                fld       dword ptr [rax]
  0x00007f580d10da55: 0000                add       byte ptr [rax],al
                                                ;*new  ; - java.lang.String::getChars@22 (line 821)

  0x00007f580d10da57: 488bd0              mov       rdx,rax
  0x00007f580d10da5a: 48be781fa10c587f0000 mov       rsi,7f580ca11f78h
                                                ;   {metadata(method data for {method} {0x00007f580c804208} &apos;getChars&apos; &apos;(II[CI)V&apos; in &apos;java/lang/String&apos;)}
  0x00007f580d10da64: 4883865801000001    add       qword ptr [rsi+158h],1h
  0x00007f580d10da6c: 488bd1              mov       rdx,rcx
  0x00007f580d10da6f: 488bf0              mov       rsi,rax
                                                ;*invokespecial &lt;init&gt;
                                                ; - java.lang.String::getChars@27 (line 821)

  0x00007f580d10da72: 4889442440          mov       qword ptr [rsp+40h],rax
  0x00007f580d10da77: e82486f3ff          call      7f580d0460a0h
                                                ; OopMap{[64]=Oop off=572}
                                                ;*invokespecial &lt;init&gt;
                                                ; - java.lang.String::getChars@27 (line 821)
                                                ;   {optimized virtual_call}
  0x00007f580d10da7c: 488b442440          mov       rax,qword ptr [rsp+40h]
  0x00007f580d10da81: e908010000          jmp       7f580d10db8eh
                                                ;*athrow
                                                ; - java.lang.String::getChars@30 (line 821)

  0x00007f580d10da86: 6690                nop
  0x00007f580d10da88: e9bf000000          jmp       7f580d10db4ch
                                                ;   {no_reloc}
  0x00007f580d10da8d: 0000                add       byte ptr [rax],al
  0x00007f580d10da8f: 0000                add       byte ptr [rax],al
  0x00007f580d10da91: 00e9                add       cl,ch
  0x00007f580d10da93: bf00000048          mov       edi,48000000h
                                                ;*new  ; - java.lang.String::getChars@4 (line 818)

  0x00007f580d10da98: 8bd0                mov       edx,eax
  0x00007f580d10da9a: 48be781fa10c587f0000 mov       rsi,7f580ca11f78h
                                                ;   {metadata(method data for {method} {0x00007f580c804208} &apos;getChars&apos; &apos;(II[CI)V&apos; in &apos;java/lang/String&apos;)}
  0x00007f580d10daa4: 4883862801000001    add       qword ptr [rsi+128h],1h
  0x00007f580d10daac: 488bd7              mov       rdx,rdi
  0x00007f580d10daaf: 488bf0              mov       rsi,rax
                                                ;*invokespecial &lt;init&gt;
                                                ; - java.lang.String::getChars@9 (line 818)

  0x00007f580d10dab2: 4889442448          mov       qword ptr [rsp+48h],rax
  0x00007f580d10dab7: e8e485f3ff          call      7f580d0460a0h
                                                ; OopMap{[72]=Oop off=636}
                                                ;*invokespecial &lt;init&gt;
                                                ; - java.lang.String::getChars@9 (line 818)
                                                ;   {optimized virtual_call}
  0x00007f580d10dabc: 488b442448          mov       rax,qword ptr [rsp+48h]
  0x00007f580d10dac1: e9c8000000          jmp       7f580d10db8eh
  0x00007f580d10dac6: 4889542408          mov       qword ptr [rsp+8h],rdx
  0x00007f580d10dacb: 48c70424ffffffff    mov       qword ptr [rsp],0ffffffffffffffffh
  0x00007f580d10dad3: e84814ffff          call      7f580d0fef20h
                                                ; OopMap{rsi=Oop r8=Oop off=664}
                                                ;*synchronization entry
                                                ; - java.lang.String::getChars@-1 (line 817)
                                                ;   {runtime_call}
  0x00007f580d10dad8: e9c4fdffff          jmp       7f580d10d8a1h
  0x00007f580d10dadd: e81e0ef6ff          call      7f580d06e900h
                                                ; OopMap{r8=Oop rsi=Oop off=674}
                                                ;*arraylength
                                                ; - java.lang.String::getChars@18 (line 820)
                                                ;   {runtime_call}
  0x00007f580d10dae2: 90                  nop
  0x00007f580d10dae3: 90                  nop
  0x00007f580d10dae4: 90                  nop
  0x00007f580d10dae5: 90                  nop
  0x00007f580d10dae6: 90                  nop
  0x00007f580d10dae7: e8348af3ff          call      7f580d046520h
                                                ; OopMap{off=684}
                                                ;*invokestatic arraycopy
                                                ; - java.lang.String::getChars@58 (line 826)
                                                ;   {static_call}
  0x00007f580d10daec: e9fffeffff          jmp       7f580d10d9f0h
  0x00007f580d10daf1: 48ba0000000000000000 mov       rdx,0h
                                                ;   {metadata(NULL)}
  0x00007f580d10dafb: b8000f050a          mov       eax,0a050f00h
  0x00007f580d10db00: e81b04ffff          call      7f580d0fdf20h
                                                ; OopMap{off=709}
                                                ;*new  ; - java.lang.String::getChars@36 (line 824)
                                                ;   {runtime_call}
  0x00007f580d10db05: e9f6feffff          jmp       7f580d10da00h
  0x00007f580d10db0a: 488bd2              mov       rdx,rdx
  0x00007f580d10db0d: e8ce08f6ff          call      7f580d06e3e0h
                                                ; OopMap{off=722}
                                                ;*new  ; - java.lang.String::getChars@36 (line 824)
                                                ;   {runtime_call}
  0x00007f580d10db12: e9f8feffff          jmp       7f580d10da0fh
  0x00007f580d10db17: 48ba0000000000000000 mov       rdx,0h
                                                ;   {metadata(NULL)}
  0x00007f580d10db21: b8000f050a          mov       eax,0a050f00h
  0x00007f580d10db26: e8f503ffff          call      7f580d0fdf20h
                                                ; OopMap{off=747}
                                                ;*new  ; - java.lang.String::getChars@22 (line 821)
                                                ;   {runtime_call}
  0x00007f580d10db2b: e918ffffff          jmp       7f580d10da48h
  0x00007f580d10db30: 488bd2              mov       rdx,rdx
  0x00007f580d10db33: e8a808f6ff          call      7f580d06e3e0h
                                                ; OopMap{off=760}
                                                ;*new  ; - java.lang.String::getChars@22 (line 821)
                                                ;   {runtime_call}
  0x00007f580d10db38: e91affffff          jmp       7f580d10da57h
  0x00007f580d10db3d: 48ba0000000000000000 mov       rdx,0h
                                                ;   {metadata(NULL)}
  0x00007f580d10db47: b8000f050a          mov       eax,0a050f00h
  0x00007f580d10db4c: e8cf03ffff          call      7f580d0fdf20h
                                                ; OopMap{off=785}
                                                ;*new  ; - java.lang.String::getChars@4 (line 818)
                                                ;   {runtime_call}
  0x00007f580d10db51: e932ffffff          jmp       7f580d10da88h
  0x00007f580d10db56: 488bd2              mov       rdx,rdx
  0x00007f580d10db59: e88208f6ff          call      7f580d06e3e0h
                                                ; OopMap{off=798}
                                                ;*new  ; - java.lang.String::getChars@4 (line 818)
                                                ;   {runtime_call}
  0x00007f580d10db5e: e934ffffff          jmp       7f580d10da97h
  0x00007f580d10db63: 90                  nop
  0x00007f580d10db64: 90                  nop
  0x00007f580d10db65: 498b87a8020000      mov       rax,qword ptr [r15+2a8h]
  0x00007f580d10db6c: 49ba0000000000000000 mov       r10,0h
  0x00007f580d10db76: 4d8997a8020000      mov       qword ptr [r15+2a8h],r10
  0x00007f580d10db7d: 49ba0000000000000000 mov       r10,0h
  0x00007f580d10db87: 4d8997b0020000      mov       qword ptr [r15+2b0h],r10
  0x00007f580d10db8e: 4883c460            add       rsp,60h
  0x00007f580d10db92: 5d                  pop       rbp
  0x00007f580d10db93: e9c818f6ff          jmp       7f580d06f460h
                                                ;   {runtime_call}
  0x00007f580d10db98: f4                  hlt
  0x00007f580d10db99: f4                  hlt
  0x00007f580d10db9a: f4                  hlt
  0x00007f580d10db9b: f4                  hlt
  0x00007f580d10db9c: f4                  hlt
  0x00007f580d10db9d: f4                  hlt
  0x00007f580d10db9e: f4                  hlt
  0x00007f580d10db9f: f4                  hlt
[Stub Code]
  0x00007f580d10dba0: 90                  nop   ;   {no_reloc}
  0x00007f580d10dba1: 90                  nop
  0x00007f580d10dba2: 90                  nop
  0x00007f580d10dba3: 90                  nop
  0x00007f580d10dba4: 90                  nop
  0x00007f580d10dba5: 48bb0000000000000000 mov       rbx,0h
                                                ;   {static_stub}
  0x00007f580d10dbaf: e9fbffffff          jmp       7f580d10dbafh
                                                ;   {runtime_call}
  0x00007f580d10dbb4: 90                  nop
  0x00007f580d10dbb5: 48bb0000000000000000 mov       rbx,0h
                                                ;   {static_stub}
  0x00007f580d10dbbf: e9fbffffff          jmp       7f580d10dbbfh
                                                ;   {runtime_call}
  0x00007f580d10dbc4: 90                  nop
  0x00007f580d10dbc5: 48bb0000000000000000 mov       rbx,0h
                                                ;   {static_stub}
  0x00007f580d10dbcf: e9fbffffff          jmp       7f580d10dbcfh
                                                ;   {runtime_call}
  0x00007f580d10dbd4: 90                  nop
  0x00007f580d10dbd5: 48bb0000000000000000 mov       rbx,0h
                                                ;   {static_stub}
  0x00007f580d10dbdf: e9fbffffff          jmp       7f580d10dbdfh
                                                ;   {runtime_call}
[Exception Handler]
  0x00007f580d10dbe4: e877ebfeff          call      7f580d0fc760h
                                                ;   {runtime_call}
  0x00007f580d10dbe9: 48896424d8          mov       qword ptr [rsp+0ffffffffffffffd8h],rsp
  0x00007f580d10dbee: 4881ec80000000      sub       rsp,80h
  0x00007f580d10dbf5: 4889442478          mov       qword ptr [rsp+78h],rax
  0x00007f580d10dbfa: 48894c2470          mov       qword ptr [rsp+70h],rcx
  0x00007f580d10dbff: 4889542468          mov       qword ptr [rsp+68h],rdx
  0x00007f580d10dc04: 48895c2460          mov       qword ptr [rsp+60h],rbx
  0x00007f580d10dc09: 48896c2450          mov       qword ptr [rsp+50h],rbp
  0x00007f580d10dc0e: 4889742448          mov       qword ptr [rsp+48h],rsi
  0x00007f580d10dc13: 48897c2440          mov       qword ptr [rsp+40h],rdi
  0x00007f580d10dc18: 4c89442438          mov       qword ptr [rsp+38h],r8
  0x00007f580d10dc1d: 4c894c2430          mov       qword ptr [rsp+30h],r9
  0x00007f580d10dc22: 4c89542428          mov       qword ptr [rsp+28h],r10
  0x00007f580d10dc27: 4c895c2420          mov       qword ptr [rsp+20h],r11
  0x00007f580d10dc2c: 4c89642418          mov       qword ptr [rsp+18h],r12
  0x00007f580d10dc31: 4c896c2410          mov       qword ptr [rsp+10h],r13
  0x00007f580d10dc36: 4c89742408          mov       qword ptr [rsp+8h],r14
  0x00007f580d10dc3b: 4c893c24            mov       qword ptr [rsp],r15
  0x00007f580d10dc3f: 48bff6598c23587f0000 mov       rdi,7f58238c59f6h
                                                ;   {external_word}
  0x00007f580d10dc49: 48bee9db100d587f0000 mov       rsi,7f580d10dbe9h
                                                ;   {internal_word}
  0x00007f580d10dc53: 488bd4              mov       rdx,rsp
  0x00007f580d10dc56: 4883e4f0            and       rsp,0fffffffffffffff0h
  0x00007f580d10dc5a: e801b64b16          call      7f58235c9260h
                                                ;   {runtime_call}
  0x00007f580d10dc5f: f4                  hlt
[Deopt Handler Code]
  0x00007f580d10dc60: 49ba60dc100d587f0000 mov       r10,7f580d10dc60h
                                                ;   {section_word}
  0x00007f580d10dc6a: 4152                push      r10
  0x00007f580d10dc6c: e98f98f3ff          jmp       7f580d047500h
                                                ;   {runtime_call}
  0x00007f580d10dc71: f4                  hlt
  0x00007f580d10dc72: f4                  hlt
  0x00007f580d10dc73: f4                  hlt
  0x00007f580d10dc74: f4                  hlt
  0x00007f580d10dc75: f4                  hlt
  0x00007f580d10dc76: f4                  hlt
  0x00007f580d10dc77: f4                  hlt
<nmethod compile_id='11' compiler='C1' level='3' entry='0x00007f580d10d840' size='2256' address='0x00007f580d10d690' relocation_offset='296' insts_offset='432' stub_offset='1296' scopes_data_offset='1520' scopes_pcs_offset='1752' dependencies_offset='2232' nul_chk_table_offset='2240' method='java/lang/String getChars (II[CI)V' bytes='62' count='291' iicount='291' stamp='0.367'/>
<writer thread='140016548087552'/>
<task_queued compile_id='12' method='java/lang/StringBuilder append (Ljava/lang/String;)Ljava/lang/StringBuilder;' bytes='8' count='256' iicount='256' level='3' stamp='0.367' comment='tiered' hot_count='256'/>
<task_queued compile_id='13' method='java/lang/Math max (II)I' bytes='11' count='256' iicount='256' level='3' stamp='0.369' comment='tiered' hot_count='256'/>
<writer thread='140016054187776'/>
Decoding compiled method 0x00007f580d10df90:
Code:
RIP: 0x7f580d10e100 Code size: 0x00000190
[Entry Point]
[Verified Entry Point]
[Constants]
   {method} {0x00007f580c8f6520} &apos;max&apos; &apos;(II)I&apos; in &apos;java/lang/Math&apos;
   parm0:    rsi       = int
   parm1:    rdx       = int
             [sp+0x40]  (sp of caller)
  0x00007f580d10e100: 89842400c0feff      mov       dword ptr [rsp+0fffffffffffec000h],eax
  0x00007f580d10e107: 55                  push      rbp
  0x00007f580d10e108: 4883ec30            sub       rsp,30h
  0x00007f580d10e10c: 48b8d09ca20c587f0000 mov       rax,7f580ca29cd0h
                                                ;   {metadata(method data for {method} {0x00007f580c8f6520} &apos;max&apos; &apos;(II)I&apos; in &apos;java/lang/Math&apos;)}
  0x00007f580d10e116: 8bb8dc000000        mov       edi,dword ptr [rax+0dch]
  0x00007f580d10e11c: 83c708              add       edi,8h
  0x00007f580d10e11f: 89b8dc000000        mov       dword ptr [rax+0dch],edi
  0x00007f580d10e125: 48b820658f0c587f0000 mov       rax,7f580c8f6520h
                                                ;   {metadata({method} {0x00007f580c8f6520} &apos;max&apos; &apos;(II)I&apos; in &apos;java/lang/Math&apos;)}
  0x00007f580d10e12f: 81e7f81f0000        and       edi,1ff8h
  0x00007f580d10e135: 83ff00              cmp       edi,0h
  0x00007f580d10e138: 0f845f000000        je        7f580d10e19dh
                                                ;*iload_0
                                                ; - java.lang.Math::max@0 (line 1252)

  0x00007f580d10e13e: 3bf2                cmp       esi,edx
  0x00007f580d10e140: 48b8d09ca20c587f0000 mov       rax,7f580ca29cd0h
                                                ;   {metadata(method data for {method} {0x00007f580c8f6520} &apos;max&apos; &apos;(II)I&apos; in &apos;java/lang/Math&apos;)}
  0x00007f580d10e14a: 48bf0801000000000000 mov       rdi,108h
  0x00007f580d10e154: 0f8c0a000000        jl        7f580d10e164h
  0x00007f580d10e15a: 48bf1801000000000000 mov       rdi,118h
  0x00007f580d10e164: 488b1c38            mov       rbx,qword ptr [rax+rdi]
  0x00007f580d10e168: 488d5b01            lea       rbx,[rbx+1h]
  0x00007f580d10e16c: 48891c38            mov       qword ptr [rax+rdi],rbx
  0x00007f580d10e170: 0f8c15000000        jl        7f580d10e18bh
                                                ;*if_icmplt
                                                ; - java.lang.Math::max@2 (line 1252)

  0x00007f580d10e176: 48b8d09ca20c587f0000 mov       rax,7f580ca29cd0h
                                                ;   {metadata(method data for {method} {0x00007f580c8f6520} &apos;max&apos; &apos;(II)I&apos; in &apos;java/lang/Math&apos;)}
  0x00007f580d10e180: ff8028010000        inc       dword ptr [rax+128h]
  0x00007f580d10e186: e903000000          jmp       7f580d10e18eh
                                                ;*goto
                                                ; - java.lang.Math::max@6 (line 1252)

  0x00007f580d10e18b: 488bf2              mov       rsi,rdx
                                                ;*ireturn
                                                ; - java.lang.Math::max@10 (line 1252)

  0x00007f580d10e18e: 488bc6              mov       rax,rsi
  0x00007f580d10e191: 4883c430            add       rsp,30h
  0x00007f580d10e195: 5d                  pop       rbp
  0x00007f580d10e196: 8505644f8d17        test      dword ptr [7f58249e3100h],eax
                                                ;   {poll_return}
  0x00007f580d10e19c: c3                  ret
  0x00007f580d10e19d: 4889442408          mov       qword ptr [rsp+8h],rax
  0x00007f580d10e1a2: 48c70424ffffffff    mov       qword ptr [rsp],0ffffffffffffffffh
  0x00007f580d10e1aa: e8710dffff          call      7f580d0fef20h
                                                ; OopMap{off=175}
                                                ;*synchronization entry
                                                ; - java.lang.Math::max@-1 (line 1252)
                                                ;   {runtime_call}
  0x00007f580d10e1af: eb8d                jmp       7f580d10e13eh
  0x00007f580d10e1b1: 90                  nop
  0x00007f580d10e1b2: 90                  nop
  0x00007f580d10e1b3: 498b87a8020000      mov       rax,qword ptr [r15+2a8h]
  0x00007f580d10e1ba: 49ba0000000000000000 mov       r10,0h
  0x00007f580d10e1c4: 4d8997a8020000      mov       qword ptr [r15+2a8h],r10
  0x00007f580d10e1cb: 49ba0000000000000000 mov       r10,0h
  0x00007f580d10e1d5: 4d8997b0020000      mov       qword ptr [r15+2b0h],r10
  0x00007f580d10e1dc: 4883c430            add       rsp,30h
  0x00007f580d10e1e0: 5d                  pop       rbp
  0x00007f580d10e1e1: e97a12f6ff          jmp       7f580d06f460h
                                                ;   {runtime_call}
  0x00007f580d10e1e6: f4                  hlt
  0x00007f580d10e1e7: f4                  hlt
  0x00007f580d10e1e8: f4                  hlt
  0x00007f580d10e1e9: f4                  hlt
  0x00007f580d10e1ea: f4                  hlt
  0x00007f580d10e1eb: f4                  hlt
  0x00007f580d10e1ec: f4                  hlt
  0x00007f580d10e1ed: f4                  hlt
  0x00007f580d10e1ee: f4                  hlt
  0x00007f580d10e1ef: f4                  hlt
  0x00007f580d10e1f0: f4                  hlt
  0x00007f580d10e1f1: f4                  hlt
  0x00007f580d10e1f2: f4                  hlt
  0x00007f580d10e1f3: f4                  hlt
  0x00007f580d10e1f4: f4                  hlt
  0x00007f580d10e1f5: f4                  hlt
  0x00007f580d10e1f6: f4                  hlt
  0x00007f580d10e1f7: f4                  hlt
  0x00007f580d10e1f8: f4                  hlt
  0x00007f580d10e1f9: f4                  hlt
  0x00007f580d10e1fa: f4                  hlt
  0x00007f580d10e1fb: f4                  hlt
  0x00007f580d10e1fc: f4                  hlt
  0x00007f580d10e1fd: f4                  hlt
  0x00007f580d10e1fe: f4                  hlt
  0x00007f580d10e1ff: f4                  hlt
[Exception Handler]
[Stub Code]
  0x00007f580d10e200: e85be5feff          call      7f580d0fc760h
                                                ;   {no_reloc}
  0x00007f580d10e205: 48896424d8          mov       qword ptr [rsp+0ffffffffffffffd8h],rsp
  0x00007f580d10e20a: 4881ec80000000      sub       rsp,80h
  0x00007f580d10e211: 4889442478          mov       qword ptr [rsp+78h],rax
  0x00007f580d10e216: 48894c2470          mov       qword ptr [rsp+70h],rcx
  0x00007f580d10e21b: 4889542468          mov       qword ptr [rsp+68h],rdx
  0x00007f580d10e220: 48895c2460          mov       qword ptr [rsp+60h],rbx
  0x00007f580d10e225: 48896c2450          mov       qword ptr [rsp+50h],rbp
  0x00007f580d10e22a: 4889742448          mov       qword ptr [rsp+48h],rsi
  0x00007f580d10e22f: 48897c2440          mov       qword ptr [rsp+40h],rdi
  0x00007f580d10e234: 4c89442438          mov       qword ptr [rsp+38h],r8
  0x00007f580d10e239: 4c894c2430          mov       qword ptr [rsp+30h],r9
  0x00007f580d10e23e: 4c89542428          mov       qword ptr [rsp+28h],r10
  0x00007f580d10e243: 4c895c2420          mov       qword ptr [rsp+20h],r11
  0x00007f580d10e248: 4c89642418          mov       qword ptr [rsp+18h],r12
  0x00007f580d10e24d: 4c896c2410          mov       qword ptr [rsp+10h],r13
  0x00007f580d10e252: 4c89742408          mov       qword ptr [rsp+8h],r14
  0x00007f580d10e257: 4c893c24            mov       qword ptr [rsp],r15
  0x00007f580d10e25b: 48bff6598c23587f0000 mov       rdi,7f58238c59f6h
                                                ;   {external_word}
  0x00007f580d10e265: 48be05e2100d587f0000 mov       rsi,7f580d10e205h
                                                ;   {internal_word}
  0x00007f580d10e26f: 488bd4              mov       rdx,rsp
  0x00007f580d10e272: 4883e4f0            and       rsp,0fffffffffffffff0h
  0x00007f580d10e276: e8e5af4b16          call      7f58235c9260h
                                                ;   {runtime_call}
  0x00007f580d10e27b: f4                  hlt
[Deopt Handler Code]
  0x00007f580d10e27c: 49ba7ce2100d587f0000 mov       r10,7f580d10e27ch
                                                ;   {section_word}
  0x00007f580d10e286: 4152                push      r10
  0x00007f580d10e288: e97392f3ff          jmp       7f580d047500h
                                                ;   {runtime_call}
  0x00007f580d10e28d: f4                  hlt
  0x00007f580d10e28e: f4                  hlt
  0x00007f580d10e28f: f4                  hlt
<nmethod compile_id='13' compiler='C1' level='3' entry='0x00007f580d10e100' size='936' address='0x00007f580d10df90' relocation_offset='296' insts_offset='368' stub_offset='624' scopes_data_offset='776' scopes_pcs_offset='816' dependencies_offset='928' method='java/lang/Math max (II)I' bytes='11' count='737' iicount='737' stamp='0.387'/>
Decoding compiled method 0x00007f580d10e350:
Code:
RIP: 0x7f580d10e4c0 Code size: 0x00000188
[Entry Point]
[Constants]
   {method} {0x00007f580c879248} &apos;append&apos; &apos;(Ljava/lang/String;)Ljava/lang/StringBuilder;&apos; in &apos;java/lang/StringBuilder&apos;
   this:     rsi:rsi   = &apos;java/lang/StringBuilder&apos;
   parm0:    rdx:rdx   = &apos;java/lang/String&apos;
             [sp+0x40]  (sp of caller)
  0x00007f580d10e4c0: 448b5608            mov       r10d,dword ptr [rsi+8h]
  0x00007f580d10e4c4: 49c1e203            shl       r10,3h
  0x00007f580d10e4c8: 4c3bd0              cmp       r10,rax
  0x00007f580d10e4cb: 0f858f79f3ff        jne       7f580d045e60h
                                                ;   {runtime_call}
  0x00007f580d10e4d1: 6666660f1f840000000000 nop       word ptr [rax+rax+0h]
  0x00007f580d10e4dc: 66666690            nop
[Verified Entry Point]
  0x00007f580d10e4e0: 89842400c0feff      mov       dword ptr [rsp+0fffffffffffec000h],eax
  0x00007f580d10e4e7: 55                  push      rbp
  0x00007f580d10e4e8: 4883ec30            sub       rsp,30h
  0x00007f580d10e4ec: 48bf309ea20c587f0000 mov       rdi,7f580ca29e30h
                                                ;   {metadata(method data for {method} {0x00007f580c879248} &apos;append&apos; &apos;(Ljava/lang/String;)Ljava/lang/StringBuilder;&apos; in &apos;java/lang/StringBuilder&apos;)}
  0x00007f580d10e4f6: 8b9fdc000000        mov       ebx,dword ptr [rdi+0dch]
  0x00007f580d10e4fc: 83c308              add       ebx,8h
  0x00007f580d10e4ff: 899fdc000000        mov       dword ptr [rdi+0dch],ebx
  0x00007f580d10e505: 48bf4892870c587f0000 mov       rdi,7f580c879248h
                                                ;   {metadata({method} {0x00007f580c879248} &apos;append&apos; &apos;(Ljava/lang/String;)Ljava/lang/StringBuilder;&apos; in &apos;java/lang/StringBuilder&apos;)}
  0x00007f580d10e50f: 81e3f81f0000        and       ebx,1ff8h
  0x00007f580d10e515: 83fb00              cmp       ebx,0h
  0x00007f580d10e518: 0f8437000000        je        7f580d10e555h
                                                ;*aload_0
                                                ; - java.lang.StringBuilder::append@0 (line 136)

  0x00007f580d10e51e: 488bfe              mov       rdi,rsi
  0x00007f580d10e521: 48bb309ea20c587f0000 mov       rbx,7f580ca29e30h
                                                ;   {metadata(method data for {method} {0x00007f580c879248} &apos;append&apos; &apos;(Ljava/lang/String;)Ljava/lang/StringBuilder;&apos; in &apos;java/lang/StringBuilder&apos;)}
  0x00007f580d10e52b: 4883830801000001    add       qword ptr [rbx+108h],1h
  0x00007f580d10e533: 488bfe              mov       rdi,rsi
  0x00007f580d10e536: 488bf7              mov       rsi,rdi
                                                ;*invokespecial append
                                                ; - java.lang.StringBuilder::append@2 (line 136)

  0x00007f580d10e539: 48897c2420          mov       qword ptr [rsp+20h],rdi
  0x00007f580d10e53e: 90                  nop
  0x00007f580d10e53f: e85c7bf3ff          call      7f580d0460a0h
                                                ; OopMap{[32]=Oop off=132}
                                                ;*invokespecial append
                                                ; - java.lang.StringBuilder::append@2 (line 136)
                                                ;   {optimized virtual_call}
  0x00007f580d10e544: 488b442420          mov       rax,qword ptr [rsp+20h]
  0x00007f580d10e549: 4883c430            add       rsp,30h
  0x00007f580d10e54d: 5d                  pop       rbp
  0x00007f580d10e54e: 8505ac4b8d17        test      dword ptr [7f58249e3100h],eax
                                                ;   {poll_return}
  0x00007f580d10e554: c3                  ret
  0x00007f580d10e555: 48897c2408          mov       qword ptr [rsp+8h],rdi
  0x00007f580d10e55a: 48c70424ffffffff    mov       qword ptr [rsp],0ffffffffffffffffh
  0x00007f580d10e562: e8b909ffff          call      7f580d0fef20h
                                                ; OopMap{rsi=Oop rdx=Oop off=167}
                                                ;*synchronization entry
                                                ; - java.lang.StringBuilder::append@-1 (line 136)
                                                ;   {runtime_call}
  0x00007f580d10e567: ebb5                jmp       7f580d10e51eh
  0x00007f580d10e569: 90                  nop
  0x00007f580d10e56a: 90                  nop
  0x00007f580d10e56b: 498b87a8020000      mov       rax,qword ptr [r15+2a8h]
  0x00007f580d10e572: 49ba0000000000000000 mov       r10,0h
  0x00007f580d10e57c: 4d8997a8020000      mov       qword ptr [r15+2a8h],r10
  0x00007f580d10e583: 49ba0000000000000000 mov       r10,0h
  0x00007f580d10e58d: 4d8997b0020000      mov       qword ptr [r15+2b0h],r10
  0x00007f580d10e594: 4883c430            add       rsp,30h
  0x00007f580d10e598: 5d                  pop       rbp
  0x00007f580d10e599: e9c20ef6ff          jmp       7f580d06f460h
                                                ;   {runtime_call}
  0x00007f580d10e59e: f4                  hlt
  0x00007f580d10e59f: f4                  hlt
[Stub Code]
  0x00007f580d10e5a0: 90                  nop   ;   {no_reloc}
  0x00007f580d10e5a1: 90                  nop
  0x00007f580d10e5a2: 90                  nop
  0x00007f580d10e5a3: 90                  nop
  0x00007f580d10e5a4: 90                  nop
  0x00007f580d10e5a5: 48bb0000000000000000 mov       rbx,0h
                                                ;   {static_stub}
  0x00007f580d10e5af: e9fbffffff          jmp       7f580d10e5afh
                                                ;   {runtime_call}
[Exception Handler]
  0x00007f580d10e5b4: e8a7e1feff          call      7f580d0fc760h
                                                ;   {runtime_call}
  0x00007f580d10e5b9: 48896424d8          mov       qword ptr [rsp+0ffffffffffffffd8h],rsp
  0x00007f580d10e5be: 4881ec80000000      sub       rsp,80h
  0x00007f580d10e5c5: 4889442478          mov       qword ptr [rsp+78h],rax
  0x00007f580d10e5ca: 48894c2470          mov       qword ptr [rsp+70h],rcx
  0x00007f580d10e5cf: 4889542468          mov       qword ptr [rsp+68h],rdx
  0x00007f580d10e5d4: 48895c2460          mov       qword ptr [rsp+60h],rbx
  0x00007f580d10e5d9: 48896c2450          mov       qword ptr [rsp+50h],rbp
  0x00007f580d10e5de: 4889742448          mov       qword ptr [rsp+48h],rsi
  0x00007f580d10e5e3: 48897c2440          mov       qword ptr [rsp+40h],rdi
  0x00007f580d10e5e8: 4c89442438          mov       qword ptr [rsp+38h],r8
  0x00007f580d10e5ed: 4c894c2430          mov       qword ptr [rsp+30h],r9
  0x00007f580d10e5f2: 4c89542428          mov       qword ptr [rsp+28h],r10
  0x00007f580d10e5f7: 4c895c2420          mov       qword ptr [rsp+20h],r11
  0x00007f580d10e5fc: 4c89642418          mov       qword ptr [rsp+18h],r12
  0x00007f580d10e601: 4c896c2410          mov       qword ptr [rsp+10h],r13
  0x00007f580d10e606: 4c89742408          mov       qword ptr [rsp+8h],r14
  0x00007f580d10e60b: 4c893c24            mov       qword ptr [rsp],r15
  0x00007f580d10e60f: 48bff6598c23587f0000 mov       rdi,7f58238c59f6h
                                                ;   {external_word}
  0x00007f580d10e619: 48beb9e5100d587f0000 mov       rsi,7f580d10e5b9h
                                                ;   {internal_word}
  0x00007f580d10e623: 488bd4              mov       rdx,rsp
  0x00007f580d10e626: 4883e4f0            and       rsp,0fffffffffffffff0h
  0x00007f580d10e62a: e831ac4b16          call      7f58235c9260h
                                                ;   {runtime_call}
  0x00007f580d10e62f: f4                  hlt
[Deopt Handler Code]
  0x00007f580d10e630: 49ba30e6100d587f0000 mov       r10,7f580d10e630h
                                                ;   {section_word}
  0x00007f580d10e63a: 4152                push      r10
  0x00007f580d10e63c: e9bf8ef3ff          jmp       7f580d047500h
                                                ;   {runtime_call}
  0x00007f580d10e641: f4                  hlt
  0x00007f580d10e642: f4                  hlt
  0x00007f580d10e643: f4                  hlt
  0x00007f580d10e644: f4                  hlt
  0x00007f580d10e645: f4                  hlt
  0x00007f580d10e646: f4                  hlt
  0x00007f580d10e647: f4                  hlt
<nmethod compile_id='12' compiler='C1' level='3' entry='0x00007f580d10e4c0' size='912' address='0x00007f580d10e350' relocation_offset='296' insts_offset='368' stub_offset='592' scopes_data_offset='768' scopes_pcs_offset='808' dependencies_offset='904' method='java/lang/StringBuilder append (Ljava/lang/String;)Ljava/lang/StringBuilder;' bytes='8' count='288' iicount='288' stamp='0.415'/>
<writer thread='140016548087552'/>
<task_queued compile_id='14' method='java/util/Arrays copyOfRange ([CII)[C' bytes='63' count='384' iicount='384' level='3' stamp='0.418' comment='tiered' hot_count='384'/>
<task_queued compile_id='15' method='java/lang/String &lt;init&gt; ([CII)V' bytes='82' count='384' iicount='384' level='3' stamp='0.418' comment='tiered' hot_count='384'/>
<task_queued compile_id='16' method='java/io/BufferedReader readLine (Z)Ljava/lang/String;' bytes='304' count='151' backedge_count='3072' iicount='151' level='3' stamp='0.418' comment='tiered' hot_count='151'/>
<task_queued compile_id='17' method='java/lang/ref/Reference get ()Ljava/lang/Object;' bytes='5' count='384' iicount='384' level='1' stamp='0.418' comment='tiered' hot_count='384'/>
<task_queued compile_id='18' method='java/io/File getPath ()Ljava/lang/String;' bytes='5' count='128' iicount='128' level='1' stamp='0.419' comment='tiered' hot_count='128'/>
<task_queued compile_id='19' method='java/lang/Object &lt;init&gt; ()V' bytes='1' count='2560' iicount='2560' level='1' stamp='0.424' comment='tiered' hot_count='2560'/>
<writer thread='140016054187776'/>
Decoding compiled method 0x00007f580d10e910:
Code:
RIP: 0x7f580d10ea60 Code size: 0x00000110
[Entry Point]
[Constants]
   {method} {0x00007f580c800480} &apos;&lt;init&gt;&apos; &apos;()V&apos; in &apos;java/lang/Object&apos;
             [sp+0x40]  (sp of caller)
  0x00007f580d10ea60: 448b5608            mov       r10d,dword ptr [rsi+8h]
  0x00007f580d10ea64: 49c1e203            shl       r10,3h
  0x00007f580d10ea68: 4c3bd0              cmp       r10,rax
  0x00007f580d10ea6b: 0f85ef73f3ff        jne       7f580d045e60h
                                                ;   {runtime_call}
  0x00007f580d10ea71: 6666660f1f840000000000 nop       word ptr [rax+rax+0h]
  0x00007f580d10ea7c: 66666690            nop
[Verified Entry Point]
  0x00007f580d10ea80: 89842400c0feff      mov       dword ptr [rsp+0fffffffffffec000h],eax
  0x00007f580d10ea87: 55                  push      rbp
  0x00007f580d10ea88: 4883ec30            sub       rsp,30h
  0x00007f580d10ea8c: 488bfe              mov       rdi,rsi
                                                ;*return
                                                ; - java.lang.Object::&lt;init&gt;@0 (line 37)

  0x00007f580d10ea8f: 4889742420          mov       qword ptr [rsp+20h],rsi
  0x00007f580d10ea94: e8c7fbf5ff          call      7f580d06e660h
                                                ; OopMap{[32]=Oop off=57}
                                                ;*return
                                                ; - java.lang.Object::&lt;init&gt;@0 (line 37)
                                                ;   {runtime_call}
  0x00007f580d10ea99: 4883c430            add       rsp,30h
  0x00007f580d10ea9d: 5d                  pop       rbp
  0x00007f580d10ea9e: 85055c468d17        test      dword ptr [7f58249e3100h],eax
                                                ;   {poll_return}
  0x00007f580d10eaa4: c3                  ret
  0x00007f580d10eaa5: 90                  nop
  0x00007f580d10eaa6: 90                  nop
  0x00007f580d10eaa7: 498b87a8020000      mov       rax,qword ptr [r15+2a8h]
  0x00007f580d10eaae: 49ba0000000000000000 mov       r10,0h
  0x00007f580d10eab8: 4d8997a8020000      mov       qword ptr [r15+2a8h],r10
  0x00007f580d10eabf: 49ba0000000000000000 mov       r10,0h
  0x00007f580d10eac9: 4d8997b0020000      mov       qword ptr [r15+2b0h],r10
  0x00007f580d10ead0: 4883c430            add       rsp,30h
  0x00007f580d10ead4: 5d                  pop       rbp
  0x00007f580d10ead5: e98609f6ff          jmp       7f580d06f460h
                                                ;   {runtime_call}
  0x00007f580d10eada: f4                  hlt
  0x00007f580d10eadb: f4                  hlt
  0x00007f580d10eadc: f4                  hlt
  0x00007f580d10eadd: f4                  hlt
  0x00007f580d10eade: f4                  hlt
  0x00007f580d10eadf: f4                  hlt
[Exception Handler]
[Stub Code]
  0x00007f580d10eae0: e87bdcfeff          call      7f580d0fc760h
                                                ;   {no_reloc}
  0x00007f580d10eae5: 48896424d8          mov       qword ptr [rsp+0ffffffffffffffd8h],rsp
  0x00007f580d10eaea: 4881ec80000000      sub       rsp,80h
  0x00007f580d10eaf1: 4889442478          mov       qword ptr [rsp+78h],rax
  0x00007f580d10eaf6: 48894c2470          mov       qword ptr [rsp+70h],rcx
  0x00007f580d10eafb: 4889542468          mov       qword ptr [rsp+68h],rdx
  0x00007f580d10eb00: 48895c2460          mov       qword ptr [rsp+60h],rbx
  0x00007f580d10eb05: 48896c2450          mov       qword ptr [rsp+50h],rbp
  0x00007f580d10eb0a: 4889742448          mov       qword ptr [rsp+48h],rsi
  0x00007f580d10eb0f: 48897c2440          mov       qword ptr [rsp+40h],rdi
  0x00007f580d10eb14: 4c89442438          mov       qword ptr [rsp+38h],r8
  0x00007f580d10eb19: 4c894c2430          mov       qword ptr [rsp+30h],r9
  0x00007f580d10eb1e: 4c89542428          mov       qword ptr [rsp+28h],r10
  0x00007f580d10eb23: 4c895c2420          mov       qword ptr [rsp+20h],r11
  0x00007f580d10eb28: 4c89642418          mov       qword ptr [rsp+18h],r12
  0x00007f580d10eb2d: 4c896c2410          mov       qword ptr [rsp+10h],r13
  0x00007f580d10eb32: 4c89742408          mov       qword ptr [rsp+8h],r14
  0x00007f580d10eb37: 4c893c24            mov       qword ptr [rsp],r15
  0x00007f580d10eb3b: 48bff6598c23587f0000 mov       rdi,7f58238c59f6h
                                                ;   {external_word}
  0x00007f580d10eb45: 48bee5ea100d587f0000 mov       rsi,7f580d10eae5h
                                                ;   {internal_word}
  0x00007f580d10eb4f: 488bd4              mov       rdx,rsp
  0x00007f580d10eb52: 4883e4f0            and       rsp,0fffffffffffffff0h
  0x00007f580d10eb56: e805a74b16          call      7f58235c9260h
                                                ;   {runtime_call}
  0x00007f580d10eb5b: f4                  hlt
[Deopt Handler Code]
  0x00007f580d10eb5c: 49ba5ceb100d587f0000 mov       r10,7f580d10eb5ch
                                                ;   {section_word}
  0x00007f580d10eb66: 4152                push      r10
  0x00007f580d10eb68: e99389f3ff          jmp       7f580d047500h
                                                ;   {runtime_call}
  0x00007f580d10eb6d: f4                  hlt
  0x00007f580d10eb6e: f4                  hlt
  0x00007f580d10eb6f: f4                  hlt
<nmethod compile_id='19' compiler='C1' level='1' entry='0x00007f580d10ea60' size='712' address='0x00007f580d10e910' relocation_offset='296' insts_offset='336' stub_offset='464' scopes_data_offset='616' scopes_pcs_offset='640' dependencies_offset='704' method='java/lang/Object &lt;init&gt; ()V' bytes='1' count='2599' iicount='2599' stamp='0.447'/>
<make_not_entrant thread='140016054187776' compile_id='3' compiler='C1' level='3' stamp='0.447'/>
<writer thread='140016548087552'/>
<task_queued compile_id='20' method='java/util/ArrayList size ()I' bytes='5' count='128' iicount='128' level='1' stamp='0.448' comment='tiered' hot_count='128'/>
<task_queued compile_id='21' method='java/lang/String startsWith (Ljava/lang/String;I)Z' bytes='72' count='442' backedge_count='1024' iicount='442' level='3' stamp='0.448' comment='tiered' hot_count='442'/>
<tty_done stamp='0.458'/>
</tty>
<compilation_log thread='140016054187776'>
<start_compile_thread name='C1 CompilerThread2' thread='140016054187776' process='24637' stamp='0.105'/>
<task compile_id='1' method='java/lang/String hashCode ()I' bytes='55' count='410' backedge_count='5297' iicount='410' level='3' stamp='0.107'>
<phase name='buildIR' stamp='0.107'>
<type id='731' name='int'/>
<klass id='739' name='java/lang/String' flags='17'/>
<method id='842' holder='739' name='hashCode' return='731' flags='1' bytes='55' iicount='413'/>
<parse method='842'  stamp='0.107'>
<parse_done stamp='0.107'/>
</parse>
<phase name='optimize_blocks' stamp='0.107'>
<phase_done name='optimize_blocks' stamp='0.107'/>
</phase>
<phase name='rangeCheckElimination' stamp='0.107'>
<phase_done name='rangeCheckElimination' stamp='0.107'/>
</phase>
<phase name='optimize_null_checks' stamp='0.107'>
<phase_done name='optimize_null_checks' stamp='0.107'/>
</phase>
<phase_done name='buildIR' stamp='0.107'/>
</phase>
<phase name='emit_lir' stamp='0.107'>
<phase name='lirGeneration' stamp='0.107'>
<phase_done name='lirGeneration' stamp='0.107'/>
</phase>
<phase name='linearScan' stamp='0.107'>
<phase_done name='linearScan' stamp='0.107'/>
</phase>
<phase_done name='emit_lir' stamp='0.107'/>
</phase>
<phase name='codeemit' stamp='0.107'>
<phase_done name='codeemit' stamp='0.107'/>
</phase>
<phase name='codeinstall' stamp='0.107'>
<phase_done name='codeinstall' stamp='0.128'/>
</phase>
<code_cache total_blobs='221' nmethods='1' adapters='135' free_code_cache='250574208'/>
<task_done success='1' nmsize='656' count='417' backedge_count='5564' stamp='0.128'/>
</task>
<task compile_id='2' method='java/lang/String equals (Ljava/lang/Object;)Z' bytes='81' count='355' backedge_count='1046' iicount='355' level='3' stamp='0.128'>
<phase name='buildIR' stamp='0.128'>
<type id='725' name='boolean'/>
<klass id='738' name='java/lang/Object' flags='1'/>
<klass id='739' name='java/lang/String' flags='17'/>
<method id='842' holder='739' name='equals' return='725' arguments='738' flags='1' bytes='81' iicount='366'/>
<parse method='842'  stamp='0.128'>
<parse_done stamp='0.128'/>
</parse>
<phase name='optimize_blocks' stamp='0.128'>
<phase_done name='optimize_blocks' stamp='0.128'/>
</phase>
<phase name='rangeCheckElimination' stamp='0.128'>
<phase_done name='rangeCheckElimination' stamp='0.128'/>
</phase>
<phase name='optimize_null_checks' stamp='0.128'>
<phase_done name='optimize_null_checks' stamp='0.128'/>
</phase>
<phase_done name='buildIR' stamp='0.128'/>
</phase>
<phase name='emit_lir' stamp='0.128'>
<phase name='lirGeneration' stamp='0.128'>
<phase_done name='lirGeneration' stamp='0.128'/>
</phase>
<phase name='linearScan' stamp='0.128'>
<phase_done name='linearScan' stamp='0.128'/>
</phase>
<phase_done name='emit_lir' stamp='0.128'/>
</phase>
<phase name='codeemit' stamp='0.128'>
<phase_done name='codeemit' stamp='0.128'/>
</phase>
<phase name='codeinstall' stamp='0.128'>
<phase_done name='codeinstall' stamp='0.145'/>
</phase>
<code_cache total_blobs='222' nmethods='2' adapters='135' free_code_cache='250571648'/>
<task_done success='1' nmsize='1360' count='378' backedge_count='1223' stamp='0.145'/>
</task>
<task compile_id='3' method='java/lang/Object &lt;init&gt; ()V' bytes='1' count='1551' iicount='1551' level='3' stamp='0.146'>
<phase name='buildIR' stamp='0.146'>
<type id='733' name='void'/>
<klass id='738' name='java/lang/Object' flags='1'/>
<method id='842' holder='738' name='&lt;init&gt;' return='733' flags='1' bytes='1' iicount='1551'/>
<parse method='842'  stamp='0.146'>
<parse_done stamp='0.146'/>
</parse>
<phase name='optimize_blocks' stamp='0.146'>
<phase_done name='optimize_blocks' stamp='0.146'/>
</phase>
<phase name='rangeCheckElimination' stamp='0.146'>
<phase_done name='rangeCheckElimination' stamp='0.146'/>
</phase>
<phase name='optimize_null_checks' stamp='0.146'>
<phase_done name='optimize_null_checks' stamp='0.146'/>
</phase>
<phase_done name='buildIR' stamp='0.146'/>
</phase>
<phase name='emit_lir' stamp='0.146'>
<phase name='lirGeneration' stamp='0.146'>
<phase_done name='lirGeneration' stamp='0.146'/>
</phase>
<phase name='linearScan' stamp='0.146'>
<phase_done name='linearScan' stamp='0.146'/>
</phase>
<phase_done name='emit_lir' stamp='0.146'/>
</phase>
<phase name='codeemit' stamp='0.146'>
<phase_done name='codeemit' stamp='0.146'/>
</phase>
<phase name='codeinstall' stamp='0.146'>
<phase_done name='codeinstall' stamp='0.154'/>
</phase>
<code_cache total_blobs='223' nmethods='3' adapters='135' free_code_cache='250570752'/>
<task_done success='1' nmsize='336' count='1570' stamp='0.154'/>
</task>
<task compile_id='5' method='java/lang/String charAt (I)C' bytes='29' count='1894' iicount='1898' level='3' stamp='0.154'>
<phase name='buildIR' stamp='0.154'>
<type id='726' name='char'/>
<type id='731' name='int'/>
<klass id='739' name='java/lang/String' flags='17'/>
<method id='842' holder='739' name='charAt' return='726' arguments='731' flags='1' bytes='29' iicount='1936'/>
<parse method='842'  stamp='0.154'>
<bc code='183' bci='18'/>
<type id='733' name='void'/>
<klass id='844' name='java/lang/StringIndexOutOfBoundsException' unloaded='1'/>
<method id='845' holder='844' name='&lt;init&gt;' return='733' arguments='731' unloaded='1'/>
<call method='845' instr='invokespecial'/>
<inline_fail reason='not inlineable'/>
<parse_done stamp='0.154'/>
</parse>
<phase name='optimize_blocks' stamp='0.154'>
<phase_done name='optimize_blocks' stamp='0.154'/>
</phase>
<phase name='rangeCheckElimination' stamp='0.154'>
<phase_done name='rangeCheckElimination' stamp='0.154'/>
</phase>
<phase name='optimize_null_checks' stamp='0.154'>
<phase_done name='optimize_null_checks' stamp='0.154'/>
</phase>
<phase_done name='buildIR' stamp='0.154'/>
</phase>
<phase name='emit_lir' stamp='0.154'>
<phase name='lirGeneration' stamp='0.154'>
<phase_done name='lirGeneration' stamp='0.154'/>
</phase>
<phase name='linearScan' stamp='0.154'>
<phase_done name='linearScan' stamp='0.155'/>
</phase>
<phase_done name='emit_lir' stamp='0.155'/>
</phase>
<phase name='codeemit' stamp='0.155'>
<phase_done name='codeemit' stamp='0.155'/>
</phase>
<phase name='codeinstall' stamp='0.155'>
<phase_done name='codeinstall' stamp='0.166'/>
</phase>
<code_cache total_blobs='224' nmethods='4' adapters='135' free_code_cache='250569344'/>
<task_done success='1' nmsize='616' count='1938' stamp='0.166'/>
</task>
<task compile_id='6' method='java/lang/Math min (II)I' bytes='11' count='654' iicount='654' level='3' stamp='0.166'>
<phase name='buildIR' stamp='0.166'>
<type id='731' name='int'/>
<klass id='842' name='java/lang/Math' flags='17'/>
<method id='843' holder='842' name='min' return='731' arguments='731 731' flags='9' bytes='11' iicount='654'/>
<parse method='843'  stamp='0.166'>
<parse_done stamp='0.166'/>
</parse>
<phase name='optimize_blocks' stamp='0.166'>
<phase_done name='optimize_blocks' stamp='0.166'/>
</phase>
<phase name='rangeCheckElimination' stamp='0.166'>
<phase_done name='rangeCheckElimination' stamp='0.166'/>
</phase>
<phase name='optimize_null_checks' stamp='0.166'>
<phase_done name='optimize_null_checks' stamp='0.167'/>
</phase>
<phase_done name='buildIR' stamp='0.167'/>
</phase>
<phase name='emit_lir' stamp='0.167'>
<phase name='lirGeneration' stamp='0.167'>
<phase_done name='lirGeneration' stamp='0.167'/>
</phase>
<phase name='linearScan' stamp='0.167'>
<phase_done name='linearScan' stamp='0.167'/>
</phase>
<phase_done name='emit_lir' stamp='0.167'/>
</phase>
<phase name='codeemit' stamp='0.167'>
<phase_done name='codeemit' stamp='0.167'/>
</phase>
<phase name='codeinstall' stamp='0.167'>
<phase_done name='codeinstall' stamp='0.201'/>
</phase>
<code_cache total_blobs='230' nmethods='6' adapters='139' free_code_cache='250565376'/>
<task_done success='1' nmsize='400' count='661' stamp='0.201'/>
</task>
<task compile_id='4' method='java/lang/String length ()I' bytes='6' count='454' iicount='454' level='3' stamp='0.201'>
<phase name='buildIR' stamp='0.201'>
<type id='731' name='int'/>
<klass id='739' name='java/lang/String' flags='17'/>
<method id='842' holder='739' name='length' return='731' flags='1' bytes='6' iicount='454'/>
<parse method='842'  stamp='0.201'>
<parse_done stamp='0.201'/>
</parse>
<phase name='optimize_blocks' stamp='0.201'>
<phase_done name='optimize_blocks' stamp='0.201'/>
</phase>
<phase name='rangeCheckElimination' stamp='0.201'>
<phase_done name='rangeCheckElimination' stamp='0.201'/>
</phase>
<phase name='optimize_null_checks' stamp='0.201'>
<phase_done name='optimize_null_checks' stamp='0.201'/>
</phase>
<phase_done name='buildIR' stamp='0.201'/>
</phase>
<phase name='emit_lir' stamp='0.201'>
<phase name='lirGeneration' stamp='0.201'>
<phase_done name='lirGeneration' stamp='0.201'/>
</phase>
<phase name='linearScan' stamp='0.201'>
<phase_done name='linearScan' stamp='0.201'/>
</phase>
<phase_done name='emit_lir' stamp='0.201'/>
</phase>
<phase name='codeemit' stamp='0.201'>
<phase_done name='codeemit' stamp='0.201'/>
</phase>
<phase name='codeinstall' stamp='0.201'>
<phase_done name='codeinstall' stamp='0.224'/>
</phase>
<code_cache total_blobs='231' nmethods='7' adapters='139' free_code_cache='250564416'/>
<task_done success='1' nmsize='368' count='500' stamp='0.224'/>
</task>
<task compile_id='8' method='java/lang/AbstractStringBuilder ensureCapacityInternal (I)V' bytes='27' count='258' iicount='258' level='3' stamp='0.224'>
<phase name='buildIR' stamp='0.224'>
<type id='733' name='void'/>
<type id='731' name='int'/>
<klass id='803' name='java/lang/AbstractStringBuilder' flags='1024'/>
<method id='842' holder='803' name='ensureCapacityInternal' return='733' arguments='731' flags='2' bytes='27' iicount='263'/>
<parse method='842'  stamp='0.224'>
<bc code='183' bci='17'/>
<method id='844' holder='803' name='newCapacity' return='731' arguments='731' flags='2' bytes='39' iicount='135'/>
<call method='844' instr='invokespecial'/>
<inline_fail reason='callee is too large'/>
<bc code='184' bci='20'/>
<klass id='831' name='[C' flags='1041'/>
<klass id='846' name='java/util/Arrays' flags='1'/>
<method id='847' holder='846' name='copyOf' return='831' arguments='831 731' flags='9' bytes='19' iicount='137'/>
<call method='847' instr='invokestatic'/>
<inline_success reason='receiver is statically known'/>
<parse method='847'>
<bc code='184' bci='11'/>
<klass id='849' name='java/lang/Math' flags='17'/>
<method id='850' holder='849' name='min' return='731' arguments='731 731' flags='9' bytes='11' compile_id='6' compiler='C1' level='3' iicount='716'/>
<call method='850' instr='invokestatic'/>
<inline_success reason='receiver is statically known'/>
<parse method='850'>
<parse_done stamp='0.224'/>
</parse>
<bc code='184' bci='14'/>
<klass id='738' name='java/lang/Object' flags='1'/>
<klass id='744' name='java/lang/System' flags='17'/>
<method id='852' holder='744' name='arraycopy' return='733' arguments='738 731 738 731 731' flags='265' bytes='0' compile_id='7' compile_kind='c2n' level='0' iicount='640'/>
<call method='852' instr='invokestatic'/>
<inline_success reason='intrinsic'/>
<parse_done stamp='0.224'/>
</parse>
<parse_done stamp='0.224'/>
</parse>
<phase name='optimize_blocks' stamp='0.224'>
<phase_done name='optimize_blocks' stamp='0.224'/>
</phase>
<phase name='rangeCheckElimination' stamp='0.224'>
<phase_done name='rangeCheckElimination' stamp='0.224'/>
</phase>
<phase name='optimize_null_checks' stamp='0.224'>
<phase_done name='optimize_null_checks' stamp='0.224'/>
</phase>
<phase_done name='buildIR' stamp='0.224'/>
</phase>
<phase name='emit_lir' stamp='0.224'>
<phase name='lirGeneration' stamp='0.224'>
<phase_done name='lirGeneration' stamp='0.224'/>
</phase>
<phase name='linearScan' stamp='0.224'>
<phase_done name='linearScan' stamp='0.225'/>
</phase>
<phase_done name='emit_lir' stamp='0.225'/>
</phase>
<phase name='codeemit' stamp='0.225'>
<phase_done name='codeemit' stamp='0.225'/>
</phase>
<phase name='codeinstall' stamp='0.225'>
<phase_done name='codeinstall' stamp='0.241'/>
</phase>
<code_cache total_blobs='232' nmethods='8' adapters='139' free_code_cache='250562240'/>
<task_done success='1' nmsize='1144' count='326' inlined_bytes='30' stamp='0.241'/>
</task>
<task compile_id='9' method='java/lang/String indexOf (II)I' bytes='70' count='200' backedge_count='5112' iicount='200' level='3' stamp='0.241'>
<phase name='buildIR' stamp='0.241'>
<type id='731' name='int'/>
<klass id='739' name='java/lang/String' flags='17'/>
<method id='842' holder='739' name='indexOf' return='731' arguments='731 731' flags='1' bytes='70' iicount='200'/>
<parse method='842'  stamp='0.241'>
<bc code='183' bci='66'/>
<method id='844' holder='739' name='indexOfSupplementary' return='731' arguments='731 731' flags='2' bytes='71' iicount='1'/>
<call method='844' instr='invokespecial'/>
<inline_fail reason='callee is too large'/>
<parse_done stamp='0.241'/>
</parse>
<phase name='optimize_blocks' stamp='0.241'>
<phase_done name='optimize_blocks' stamp='0.241'/>
</phase>
<phase name='rangeCheckElimination' stamp='0.241'>
<phase_done name='rangeCheckElimination' stamp='0.241'/>
</phase>
<phase name='optimize_null_checks' stamp='0.241'>
<phase_done name='optimize_null_checks' stamp='0.241'/>
</phase>
<phase_done name='buildIR' stamp='0.241'/>
</phase>
<phase name='emit_lir' stamp='0.241'>
<phase name='lirGeneration' stamp='0.241'>
<phase_done name='lirGeneration' stamp='0.241'/>
</phase>
<phase name='linearScan' stamp='0.241'>
<phase_done name='linearScan' stamp='0.241'/>
</phase>
<phase_done name='emit_lir' stamp='0.241'/>
</phase>
<phase name='codeemit' stamp='0.241'>
<phase_done name='codeemit' stamp='0.242'/>
</phase>
<phase name='codeinstall' stamp='0.242'>
<phase_done name='codeinstall' stamp='0.256'/>
</phase>
<code_cache total_blobs='233' nmethods='9' adapters='139' free_code_cache='250560320'/>
<task_done success='1' nmsize='904' count='202' backedge_count='5216' stamp='0.256'/>
</task>
<task compile_id='10' method='java/lang/AbstractStringBuilder append (Ljava/lang/String;)Ljava/lang/AbstractStringBuilder;' bytes='50' count='259' iicount='259' level='3' stamp='0.262'>
<phase name='buildIR' stamp='0.262'>
<klass id='803' name='java/lang/AbstractStringBuilder' flags='1024'/>
<klass id='739' name='java/lang/String' flags='17'/>
<method id='842' holder='803' name='append' return='803' arguments='739' flags='1' bytes='50' iicount='259'/>
<parse method='842'  stamp='0.262'>
<bc code='183' bci='5'/>
<method id='844' holder='803' name='appendNull' return='803' flags='2' bytes='56' iicount='1'/>
<call method='844' instr='invokespecial'/>
<inline_fail reason='callee is too large'/>
<bc code='182' bci='10'/>
<type id='731' name='int'/>
<method id='846' holder='739' name='length' return='731' flags='1' bytes='6' compile_id='4' compiler='C1' level='3' iicount='702'/>
<call method='846' instr='invokevirtual'/>
<inline_success reason='receiver is statically known'/>
<parse method='846'>
<parse_done stamp='0.262'/>
</parse>
<bc code='183' bci='21'/>
<type id='733' name='void'/>
<method id='848' holder='803' name='ensureCapacityInternal' return='733' arguments='731' flags='2' bytes='27' compile_id='8' compiler='C1' level='3' iicount='338'/>
<call method='848' instr='invokespecial'/>
<inline_success reason='receiver is statically known'/>
<parse method='848'>
<bc code='183' bci='17'/>
<method id='850' holder='803' name='newCapacity' return='731' arguments='731' flags='2' bytes='39' iicount='160'/>
<call method='850' instr='invokespecial'/>
<inline_fail reason='callee is too large'/>
<bc code='184' bci='20'/>
<klass id='831' name='[C' flags='1041'/>
<klass id='852' name='java/util/Arrays' flags='1'/>
<method id='853' holder='852' name='copyOf' return='831' arguments='831 731' flags='9' bytes='19' iicount='169'/>
<call method='853' instr='invokestatic'/>
<inline_success reason='receiver is statically known'/>
<parse method='853'>
<bc code='184' bci='11'/>
<klass id='855' name='java/lang/Math' flags='17'/>
<method id='856' holder='855' name='min' return='731' arguments='731 731' flags='9' bytes='11' compile_id='6' compiler='C1' level='3' iicount='819'/>
<call method='856' instr='invokestatic'/>
<inline_success reason='receiver is statically known'/>
<parse method='856'>
<parse_done stamp='0.262'/>
</parse>
<bc code='184' bci='14'/>
<klass id='738' name='java/lang/Object' flags='1'/>
<klass id='744' name='java/lang/System' flags='17'/>
<method id='858' holder='744' name='arraycopy' return='733' arguments='738 731 738 731 731' flags='265' bytes='0' compile_id='7' compile_kind='c2n' level='0' iicount='640'/>
<call method='858' instr='invokestatic'/>
<inline_success reason='intrinsic'/>
<parse_done stamp='0.262'/>
</parse>
<parse_done stamp='0.262'/>
</parse>
<bc code='182' bci='35'/>
<method id='860' holder='739' name='getChars' return='733' arguments='731 731 831 731' flags='1' bytes='62' iicount='259'/>
<call method='860' instr='invokevirtual'/>
<inline_fail reason='callee is too large'/>
<parse_done stamp='0.262'/>
</parse>
<phase name='optimize_blocks' stamp='0.262'>
<phase_done name='optimize_blocks' stamp='0.262'/>
</phase>
<phase name='rangeCheckElimination' stamp='0.262'>
<phase_done name='rangeCheckElimination' stamp='0.262'/>
</phase>
<phase name='optimize_null_checks' stamp='0.262'>
<phase_done name='optimize_null_checks' stamp='0.262'/>
</phase>
<phase_done name='buildIR' stamp='0.262'/>
</phase>
<phase name='emit_lir' stamp='0.262'>
<phase name='lirGeneration' stamp='0.262'>
<phase_done name='lirGeneration' stamp='0.262'/>
</phase>
<phase name='linearScan' stamp='0.262'>
<phase_done name='linearScan' stamp='0.263'/>
</phase>
<phase_done name='emit_lir' stamp='0.263'/>
</phase>
<phase name='codeemit' stamp='0.263'>
<phase_done name='codeemit' stamp='0.263'/>
</phase>
<phase name='codeinstall' stamp='0.263'>
<phase_done name='codeinstall' stamp='0.331'/>
</phase>
<code_cache total_blobs='238' nmethods='10' adapters='143' free_code_cache='250554752'/>
<task_done success='1' nmsize='1880' count='288' inlined_bytes='63' stamp='0.331'/>
</task>
<task compile_id='11' method='java/lang/String getChars (II[CI)V' bytes='62' count='288' iicount='288' level='3' stamp='0.331'>
<phase name='buildIR' stamp='0.331'>
<type id='733' name='void'/>
<type id='731' name='int'/>
<klass id='831' name='[C' flags='1041'/>
<klass id='739' name='java/lang/String' flags='17'/>
<method id='842' holder='739' name='getChars' return='733' arguments='731 731 831 731' flags='1' bytes='62' iicount='288'/>
<parse method='842'  stamp='0.331'>
<bc code='183' bci='9'/>
<klass id='844' name='java/lang/StringIndexOutOfBoundsException' unloaded='1'/>
<method id='845' holder='844' name='&lt;init&gt;' return='733' arguments='731' unloaded='1'/>
<call method='845' instr='invokespecial'/>
<inline_fail reason='not inlineable'/>
<bc code='183' bci='27'/>
<call method='845' instr='invokespecial'/>
<inline_fail reason='not inlineable'/>
<bc code='183' bci='43'/>
<call method='845' instr='invokespecial'/>
<inline_fail reason='not inlineable'/>
<bc code='184' bci='58'/>
<klass id='738' name='java/lang/Object' flags='1'/>
<klass id='744' name='java/lang/System' flags='17'/>
<method id='846' holder='744' name='arraycopy' return='733' arguments='738 731 738 731 731' flags='265' bytes='0' compile_id='7' compile_kind='c2n' level='0' iicount='640'/>
<call method='846' instr='invokestatic'/>
<inline_success reason='intrinsic'/>
<parse_done stamp='0.331'/>
</parse>
<phase name='optimize_blocks' stamp='0.331'>
<phase_done name='optimize_blocks' stamp='0.331'/>
</phase>
<phase name='rangeCheckElimination' stamp='0.331'>
<phase_done name='rangeCheckElimination' stamp='0.331'/>
</phase>
<phase name='optimize_null_checks' stamp='0.331'>
<phase_done name='optimize_null_checks' stamp='0.331'/>
</phase>
<phase_done name='buildIR' stamp='0.331'/>
</phase>
<phase name='emit_lir' stamp='0.331'>
<phase name='lirGeneration' stamp='0.331'>
<phase_done name='lirGeneration' stamp='0.331'/>
</phase>
<phase name='linearScan' stamp='0.331'>
<phase_done name='linearScan' stamp='0.331'/>
</phase>
<phase_done name='emit_lir' stamp='0.331'/>
</phase>
<phase name='codeemit' stamp='0.331'>
<phase_done name='codeemit' stamp='0.331'/>
</phase>
<phase name='codeinstall' stamp='0.331'>
<phase_done name='codeinstall' stamp='0.370'/>
</phase>
<code_cache total_blobs='239' nmethods='11' adapters='143' free_code_cache='250552448'/>
<task_done success='1' nmsize='1080' count='342' stamp='0.370'/>
</task>
<task compile_id='13' method='java/lang/Math max (II)I' bytes='11' count='737' iicount='737' level='3' stamp='0.370'>
<phase name='buildIR' stamp='0.370'>
<type id='731' name='int'/>
<klass id='842' name='java/lang/Math' flags='17'/>
<method id='843' holder='842' name='max' return='731' arguments='731 731' flags='9' bytes='11' iicount='737'/>
<parse method='843'  stamp='0.370'>
<parse_done stamp='0.370'/>
</parse>
<phase name='optimize_blocks' stamp='0.370'>
<phase_done name='optimize_blocks' stamp='0.370'/>
</phase>
<phase name='rangeCheckElimination' stamp='0.370'>
<phase_done name='rangeCheckElimination' stamp='0.370'/>
</phase>
<phase name='optimize_null_checks' stamp='0.370'>
<phase_done name='optimize_null_checks' stamp='0.370'/>
</phase>
<phase_done name='buildIR' stamp='0.370'/>
</phase>
<phase name='emit_lir' stamp='0.370'>
<phase name='lirGeneration' stamp='0.370'>
<phase_done name='lirGeneration' stamp='0.370'/>
</phase>
<phase name='linearScan' stamp='0.370'>
<phase_done name='linearScan' stamp='0.370'/>
</phase>
<phase_done name='emit_lir' stamp='0.370'/>
</phase>
<phase name='codeemit' stamp='0.370'>
<phase_done name='codeemit' stamp='0.370'/>
</phase>
<phase name='codeinstall' stamp='0.370'>
<phase_done name='codeinstall' stamp='0.387'/>
</phase>
<code_cache total_blobs='240' nmethods='12' adapters='143' free_code_cache='250551488'/>
<task_done success='1' nmsize='400' count='737' stamp='0.387'/>
</task>
<task compile_id='12' method='java/lang/StringBuilder append (Ljava/lang/String;)Ljava/lang/StringBuilder;' bytes='8' count='288' iicount='288' level='3' stamp='0.387'>
<phase name='buildIR' stamp='0.387'>
<klass id='805' name='java/lang/StringBuilder' flags='17'/>
<klass id='739' name='java/lang/String' flags='17'/>
<method id='842' holder='805' name='append' return='805' arguments='739' flags='1' bytes='8' iicount='288'/>
<parse method='842'  stamp='0.388'>
<bc code='183' bci='2'/>
<klass id='803' name='java/lang/AbstractStringBuilder' flags='1024'/>
<method id='844' holder='803' name='append' return='803' arguments='739' flags='1' bytes='50' compile_id='10' compiler='C1' level='3' iicount='342'/>
<call method='844' instr='invokespecial'/>
<inline_fail reason='callee is too large'/>
<parse_done stamp='0.388'/>
</parse>
<phase name='optimize_blocks' stamp='0.388'>
<phase_done name='optimize_blocks' stamp='0.388'/>
</phase>
<phase name='rangeCheckElimination' stamp='0.388'>
<phase_done name='rangeCheckElimination' stamp='0.388'/>
</phase>
<phase name='optimize_null_checks' stamp='0.388'>
<phase_done name='optimize_null_checks' stamp='0.388'/>
</phase>
<phase_done name='buildIR' stamp='0.388'/>
</phase>
<phase name='emit_lir' stamp='0.388'>
<phase name='lirGeneration' stamp='0.388'>
<phase_done name='lirGeneration' stamp='0.388'/>
</phase>
<phase name='linearScan' stamp='0.388'>
<phase_done name='linearScan' stamp='0.388'/>
</phase>
<phase_done name='emit_lir' stamp='0.388'/>
</phase>
<phase name='codeemit' stamp='0.388'>
<phase_done name='codeemit' stamp='0.388'/>
</phase>
<phase name='codeinstall' stamp='0.388'>
<phase_done name='codeinstall' stamp='0.425'/>
</phase>
<code_cache total_blobs='242' nmethods='13' adapters='144' free_code_cache='250550016'/>
<task_done success='1' nmsize='392' count='382' stamp='0.425'/>
</task>
<fragment>
<![CDATA[
<task compile_id='19' method='java/lang/Object &lt;init&gt; ()V' bytes='1' count='2584' iicount='2584' level='1' stamp='0.425'>
<phase name='buildIR' stamp='0.425'>
<type id='733' name='void'/>
<klass id='738' name='java/lang/Object' flags='1'/>
<method id='842' holder='738' name='&lt;init&gt;' return='733' flags='1' bytes='1' compile_id='3' compiler='C1' level='3' iicount='2584'/>
<parse method='842'  stamp='0.425'>
<parse_done stamp='0.425'/>
</parse>
<phase name='optimize_blocks' stamp='0.425'>
<phase_done name='optimize_blocks' stamp='0.425'/>
</phase>
<phase name='rangeCheckElimination' stamp='0.425'>
<phase_done name='rangeCheckElimination' stamp='0.425'/>
</phase>
<phase name='optimize_null_checks' stamp='0.425'>
<phase_done name='optimize_null_checks' stamp='0.425'/>
</phase>
<phase_done name='buildIR' stamp='0.425'/>
</phase>
<phase name='emit_lir' stamp='0.425'>
<phase name='lirGeneration' stamp='0.425'>
<phase_done name='lirGeneration' stamp='0.425'/>
</phase>
<phase name='linearScan' stamp='0.425'>
<phase_done name='linearScan' stamp='0.425'/>
</phase>
<phase_done name='emit_lir' stamp='0.425'/>
</phase>
<phase name='codeemit' stamp='0.425'>
<phase_done name='codeemit' stamp='0.425'/>
</phase>
<phase name='codeinstall' stamp='0.425'>
]]>
</fragment>
</compilation_log>
<compilation_log thread='140016055240448'>
<fragment>
<![CDATA[
<start_compile_thread name='C2 CompilerThread1' thread='140016055240448' process='24637' stamp='0.104'/>
]]>
</fragment>
</compilation_log>
<compilation_log thread='140016056293120'>
<fragment>
<![CDATA[
<start_compile_thread name='C2 CompilerThread0' thread='140016056293120' process='24637' stamp='0.100'/>
]]>
</fragment>
</compilation_log>
<hotspot_log_done stamp='0.459'/>
</hotspot_log>
