<?xml version='1.0' encoding='UTF-8'?>
<hotspot_log version='160 1' process='24801' time_ms='1566318097961'>
<vm_version>
<name>
Java HotSpot(TM) 64-Bit Server VM
</name>
<release>
25.191-b12
</release>
<info>
Java HotSpot(TM) 64-Bit Server VM (25.191-b12) for linux-amd64 JRE (1.8.0_191-b12), built on Oct  6 2018 05:43:09 by &quot;java_re&quot; with gcc 7.3.0
</info>
</vm_version>
<vm_arguments>
<args>
-Dvisualvm.id=132096956081928 -XX:+UnlockDiagnosticVMOptions -XX:+PrintAssembly -XX:+LogCompilation -XX:PrintAssemblyOptions=intel,mpad=10,cpad=10,code,*JITDemo.main -javaagent:/home/lgj/java/idea-IU-183.4886.37/lib/idea_rt.jar=43299:/home/lgj/java/idea-IU-183.4886.37/bin -Dfile.encoding=UTF-8 
</args>
<command>
com.example.demo.thread.JITDemo
</command>
<launcher>
SUN_STANDARD
</launcher>
<properties>
java.vm.specification.name=Java Virtual Machine Specification
java.vm.version=25.191-b12
java.vm.name=Java HotSpot(TM) 64-Bit Server VM
java.vm.info=mixed mode, sharing
java.ext.dirs=/home/lgj/java/jdk1.8.0_191/jre/lib/ext:/usr/java/packages/lib/ext
java.endorsed.dirs=/home/lgj/java/jdk1.8.0_191/jre/lib/endorsed
sun.boot.library.path=/home/lgj/java/jdk1.8.0_191/jre/lib/amd64
java.library.path=/usr/java/packages/lib/amd64:/usr/lib64:/lib64:/lib:/usr/lib
java.home=/home/lgj/java/jdk1.8.0_191/jre
java.class.path=/home/lgj/java/jdk1.8.0_191/jre/lib/charsets.jar:/home/lgj/java/jdk1.8.0_191/jre/lib/deploy.jar:/home/lgj/java/jdk1.8.0_191/jre/lib/ext/cldrdata.jar:/home/lgj/java/jdk1.8.0_191/jre/lib/ext/dnsns.jar:/home/lgj/java/jdk1.8.0_191/jre/lib/ext/jaccess.jar:/home/lgj/java/jdk1.8.0_191/jre/lib/ext/jfxrt.jar:/home/lgj/java/jdk1.8.0_191/jre/lib/ext/localedata.jar:/home/lgj/java/jdk1.8.0_191/jre/lib/ext/nashorn.jar:/home/lgj/java/jdk1.8.0_191/jre/lib/ext/sunec.jar:/home/lgj/java/jdk1.8.0_191/jre/lib/ext/sunjce_provider.jar:/home/lgj/java/jdk1.8.0_191/jre/lib/ext/sunpkcs11.jar:/home/lgj/java/jdk1.8.0_191/jre/lib/ext/zipfs.jar:/home/lgj/java/jdk1.8.0_191/jre/lib/javaws.jar:/home/lgj/java/jdk1.8.0_191/jre/lib/jce.jar:/home/lgj/java/jdk1.8.0_191/jre/lib/jfr.jar:/home/lgj/java/jdk1.8.0_191/jre/lib/jfxswt.jar:/home/lgj/java/jdk1.8.0_191/jre/lib/jsse.jar:/home/lgj/java/jdk1.8.0_191/jre/lib/management-agent.jar:/home/lgj/java/jdk1.8.0_191/jre/lib/plugin.jar:/home/lgj/java/jdk1.8.0_191/jre/lib/resources.jar:/home/lgj/java/jdk1.8.0_191/jre/lib/rt.jar:/home/lgj/aProject/aRealPrj/Java-Interview/demo/target/classes:/home/lgj/.m2/repository/org/springframework/boot/spring-boot-starter/2.1.6.RELEASE/spring-boot-starter-2.1.6.RELEASE.jar:/home/lgj/.m2/repository/org/springframework/boot/spring-boot/2.1.6.RELEASE/spring-boot-2.1.6.RELEASE.jar:/home/lgj/.m2/repository/org/springframework/spring-context/5.1.8.RELEASE/spring-context-5.1.8.RELEASE.jar:/home/lgj/.m2/repository/org/springframework/spring-aop/5.1.8.RELEASE/spring-aop-5.1.8.RELEASE.jar:/home/lgj/.m2/repository/org/springframework/spring-beans/5.1.8.RELEASE/spring-beans-5.1.8.RELEASE.jar:/home/lgj/.m2/repository/org/springframework/spring-expression/5.1.8.RELEASE/spring-expression-5.1.8.RELEASE.jar:/home/lgj/.m2/repository/org/springframework/boot/spring-boot-autoconfigure/2.1.6.RELEASE/spring-boot-autoconfigure-2.1.6.RELEASE.jar:/home/lgj/.m2/repository/org/springframework/boot/spring-boot-starter-logging/2.1.6.RELEA
sun.boot.class.path=/home/lgj/java/jdk1.8.0_191/jre/lib/resources.jar:/home/lgj/java/jdk1.8.0_191/jre/lib/rt.jar:/home/lgj/java/jdk1.8.0_191/jre/lib/sunrsasign.jar:/home/lgj/java/jdk1.8.0_191/jre/lib/jsse.jar:/home/lgj/java/jdk1.8.0_191/jre/lib/jce.jar:/home/lgj/java/jdk1.8.0_191/jre/lib/charsets.jar:/home/lgj/java/jdk1.8.0_191/jre/lib/jfr.jar:/home/lgj/java/jdk1.8.0_191/jre/classes
java.vm.specification.vendor=Oracle Corporation
java.vm.specification.version=1.8
java.vm.vendor=Oracle Corporation
visualvm.id=132096956081928
file.encoding=UTF-8
sun.java.command=com.example.demo.thread.JITDemo
sun.java.launcher=SUN_STANDARD
</properties>
</vm_arguments>
<tty>
<writer thread='140432894322432'/>
<thread_logfile thread='140432894322432' filename='/tmp/hs_c140432894322432_pid24801.log'/>
<writer thread='140432893269760'/>
<thread_logfile thread='140432893269760' filename='/tmp/hs_c140432893269760_pid24801.log'/>
<writer thread='140432895375104'/>
Loaded disassembler from /home/lgj/java/jdk1.8.0_191/jre/lib/amd64/hsdis-amd64.so
Decoding compiled method 0x00007fb91ce54310:
Code:
Argument 0 is unknown.RIP: 0x7fb91ce54480 Code size: 0x00000208
[Disassembling for mach=&apos;amd64&apos;]
<writer thread='140432885225216'/>
<thread_logfile thread='140432885225216' filename='/tmp/hs_c140432885225216_pid24801.log'/>
<writer thread='140432895375104'/>
[Entry Point]
  # {method} {0x00007fb916597930} &apos;arraycopy&apos; &apos;(Ljava/lang/Object;ILjava/lang/Object;II)V&apos; in &apos;java/lang/System&apos;
  # parm0:    rsi:rsi   = &apos;java/lang/Object&apos;
  # parm1:    rdx       = int
  # parm2:    rcx:rcx   = &apos;java/lang/Object&apos;
  # parm3:    r8        = int
  # parm4:    r9        = int
  #           [sp+0x60]  (sp of caller)
  0x00007fb91ce54480: 448b5608            mov       r10d,dword ptr [rsi+8h]
  0x00007fb91ce54484: 49c1e203            shl       r10,3h
  0x00007fb91ce54488: 493bc2              cmp       rax,r10
  0x00007fb91ce5448b: 0f8407000000        je        7fb91ce54498h
  0x00007fb91ce54491: e9ca59fdff          jmp       7fb91ce29e60h
                                                ;   {runtime_call}
  0x00007fb91ce54496: 6690                nop
[Verified Entry Point]
  0x00007fb91ce54498: 89842400c0feff      mov       dword ptr [rsp+0fffffffffffec000h],eax
  0x00007fb91ce5449f: 55                  push      rbp
  0x00007fb91ce544a0: 488bec              mov       rbp,rsp
  0x00007fb91ce544a3: 4883ec50            sub       rsp,50h
  0x00007fb91ce544a7: 4c890c24            mov       qword ptr [rsp],r9
  0x00007fb91ce544ab: 4d8bc8              mov       r9,r8
  0x00007fb91ce544ae: 48894c2418          mov       qword ptr [rsp+18h],rcx
  0x00007fb91ce544b3: 4883f900            cmp       rcx,0h
  0x00007fb91ce544b7: 4c8d442418          lea       r8,[rsp+18h]
  0x00007fb91ce544bc: 4c0f44442418        cmove     r8,qword ptr [rsp+18h]
  0x00007fb91ce544c2: 488bca              mov       rcx,rdx
  0x00007fb91ce544c5: 4889742408          mov       qword ptr [rsp+8h],rsi
  0x00007fb91ce544ca: 4883fe00            cmp       rsi,0h
  0x00007fb91ce544ce: 488d542408          lea       rdx,[rsp+8h]
  0x00007fb91ce544d3: 480f44542408        cmove     rdx,qword ptr [rsp+8h]
  0x00007fb91ce544d9: 49be780c388c07000000 mov       r14,78c380c78h
                                                ;   {oop(a &apos;java/lang/Class&apos; = &apos;java/lang/System&apos;)}
  0x00007fb91ce544e3: 4c89742438          mov       qword ptr [rsp+38h],r14
  0x00007fb91ce544e8: 4c8d742438          lea       r14,[rsp+38h]
  0x00007fb91ce544ed: 498bf6              mov       rsi,r14
                                                ; OopMap{[24]=Oop [8]=Oop [56]=Oop off=112}
  0x00007fb91ce544f0: 49baf044e51cb97f0000 mov       r10,7fb91ce544f0h
                                                ;   {section_word}
  0x00007fb91ce544fa: 4d8997e0010000      mov       qword ptr [r15+1e0h],r10
  0x00007fb91ce54501: 4989a7d8010000      mov       qword ptr [r15+1d8h],rsp
  0x00007fb91ce54508: 803df5097a1500      cmp       byte ptr [7fb9325f4f04h],0h
                                                ;   {external_word}
  0x00007fb91ce5450f: 0f843e000000        je        7fb91ce54553h
  0x00007fb91ce54515: 56                  push      rsi
  0x00007fb91ce54516: 52                  push      rdx
  0x00007fb91ce54517: 51                  push      rcx
  0x00007fb91ce54518: 4150                push      r8
  0x00007fb91ce5451a: 4151                push      r9
  0x00007fb91ce5451c: 48be30795916b97f0000 mov       rsi,7fb916597930h
                                                ;   {metadata({method} {0x00007fb916597930} &apos;arraycopy&apos; &apos;(Ljava/lang/Object;ILjava/lang/Object;II)V&apos; in &apos;java/lang/System&apos;)}
  0x00007fb91ce54526: 498bff              mov       rdi,r15
  0x00007fb91ce54529: f7c40f000000        test      esp,0fh
  0x00007fb91ce5452f: 0f8412000000        je        7fb91ce54547h
  0x00007fb91ce54535: 4883ec08            sub       rsp,8h
  0x00007fb91ce54539: e8d2691a15          call      7fb931ffaf10h
                                                ;   {runtime_call}
  0x00007fb91ce5453e: 4883c408            add       rsp,8h
  0x00007fb91ce54542: e905000000          jmp       7fb91ce5454ch
  0x00007fb91ce54547: e8c4691a15          call      7fb931ffaf10h
                                                ;   {runtime_call}
  0x00007fb91ce5454c: 4159                pop       r9
  0x00007fb91ce5454e: 4158                pop       r8
  0x00007fb91ce54550: 59                  pop       rcx
  0x00007fb91ce54551: 5a                  pop       rdx
  0x00007fb91ce54552: 5e                  pop       rsi
  0x00007fb91ce54553: 498dbff8010000      lea       rdi,[r15+1f8h]
  0x00007fb91ce5455a: 41c7877002000004000000 mov       dword ptr [r15+270h],4h
  0x00007fb91ce54565: e8f685ed14          call      7fb931d2cb60h
                                                ;   {runtime_call}
  0x00007fb91ce5456a: c5f877              vzeroupper
  0x00007fb91ce5456d: 41c7877002000005000000 mov       dword ptr [r15+270h],5h
  0x00007fb91ce54578: 418bcf              mov       ecx,r15d
  0x00007fb91ce5457b: c1e904              shr       ecx,4h
  0x00007fb91ce5457e: 81e1fc0f0000        and       ecx,0ffch
  0x00007fb91ce54584: 49ba00202733b97f0000 mov       r10,7fb933272000h
                                                ;   {external_word}
  0x00007fb91ce5458e: 41890c0a            mov       dword ptr [r10+rcx],ecx
  0x00007fb91ce54592: 813d68097b1500000000 cmp       dword ptr [7fb932604f04h],0h
                                                ;   {external_word}
  0x00007fb91ce5459c: 0f850e000000        jne       7fb91ce545b0h
  0x00007fb91ce545a2: 41817f3000000000    cmp       dword ptr [r15+30h],0h
  0x00007fb91ce545aa: 0f8419000000        je        7fb91ce545c9h
  0x00007fb91ce545b0: 498bff              mov       rdi,r15
  0x00007fb91ce545b3: 4c8be4              mov       r12,rsp
  0x00007fb91ce545b6: 4883ec00            sub       rsp,0h
  0x00007fb91ce545ba: 4883e4f0            and       rsp,0fffffffffffffff0h
  0x00007fb91ce545be: e81d632515          call      7fb9320aa8e0h
                                                ;   {runtime_call}
  0x00007fb91ce545c3: 498be4              mov       rsp,r12
  0x00007fb91ce545c6: 4d33e4              xor       r12,r12
  0x00007fb91ce545c9: 41c7877002000008000000 mov       dword ptr [r15+270h],8h
  0x00007fb91ce545d4: 4181bf9c02000001000000 cmp       dword ptr [r15+29ch],1h
  0x00007fb91ce545df: 0f8482000000        je        7fb91ce54667h
  0x00007fb91ce545e5: 803d18097a1500      cmp       byte ptr [7fb9325f4f04h],0h
                                                ;   {external_word}
  0x00007fb91ce545ec: 0f8430000000        je        7fb91ce54622h
  0x00007fb91ce545f2: 48be30795916b97f0000 mov       rsi,7fb916597930h
                                                ;   {metadata({method} {0x00007fb916597930} &apos;arraycopy&apos; &apos;(Ljava/lang/Object;ILjava/lang/Object;II)V&apos; in &apos;java/lang/System&apos;)}
  0x00007fb91ce545fc: 498bff              mov       rdi,r15
  0x00007fb91ce545ff: f7c40f000000        test      esp,0fh
  0x00007fb91ce54605: 0f8412000000        je        7fb91ce5461dh
  0x00007fb91ce5460b: 4883ec08            sub       rsp,8h
  0x00007fb91ce5460f: e80c691a15          call      7fb931ffaf20h
                                                ;   {runtime_call}
  0x00007fb91ce54614: 4883c408            add       rsp,8h
  0x00007fb91ce54618: e905000000          jmp       7fb91ce54622h
  0x00007fb91ce5461d: e8fe681a15          call      7fb931ffaf20h
                                                ;   {runtime_call}
  0x00007fb91ce54622: 49ba0000000000000000 mov       r10,0h
  0x00007fb91ce5462c: 4d8997d8010000      mov       qword ptr [r15+1d8h],r10
  0x00007fb91ce54633: 49ba0000000000000000 mov       r10,0h
  0x00007fb91ce5463d: 4d8997e0010000      mov       qword ptr [r15+1e0h],r10
  0x00007fb91ce54644: 498b4f38            mov       rcx,qword ptr [r15+38h]
  0x00007fb91ce54648: c7810001000000000000 mov       dword ptr [rcx+100h],0h
  0x00007fb91ce54652: c9                  leave
  0x00007fb91ce54653: 49817f0800000000    cmp       qword ptr [r15+8h],0h
  0x00007fb91ce5465b: 0f8501000000        jne       7fb91ce54662h
  0x00007fb91ce54661: c3                  ret
  0x00007fb91ce54662: e97900f9ff          jmp       7fb91cde46e0h
                                                ;   {runtime_call}
  0x00007fb91ce54667: 4c8be4              mov       r12,rsp
  0x00007fb91ce5466a: 4883ec00            sub       rsp,0h
  0x00007fb91ce5466e: 4883e4f0            and       rsp,0fffffffffffffff0h
  0x00007fb91ce54672: e879ee1a15          call      7fb9320034f0h
                                                ;   {runtime_call}
  0x00007fb91ce54677: 498be4              mov       rsp,r12
  0x00007fb91ce5467a: 4d33e4              xor       r12,r12
  0x00007fb91ce5467d: e963ffffff          jmp       7fb91ce545e5h
  0x00007fb91ce54682: f4                  hlt
  0x00007fb91ce54683: f4                  hlt
  0x00007fb91ce54684: f4                  hlt
  0x00007fb91ce54685: f4                  hlt
  0x00007fb91ce54686: f4                  hlt
  0x00007fb91ce54687: f4                  hlt
<nmethod compile_id='1' compile_kind='c2n' level='0' entry='0x00007fb91ce54480' size='888' address='0x00007fb91ce54310' relocation_offset='296' consts_offset='888' insts_offset='368' method='java/lang/System arraycopy (Ljava/lang/Object;ILjava/lang/Object;II)V' bytes='0' count='2688' iicount='2688' stamp='0.190'/>
<task_queued compile_id='2' method='java/lang/AbstractStringBuilder newCapacity (I)I' bytes='39' count='384' iicount='384' level='3' stamp='0.191' comment='tiered' hot_count='384'/>
<task_queued compile_id='3' method='java/util/Arrays copyOfRange ([CII)[C' bytes='63' count='768' iicount='768' level='3' stamp='0.191' comment='tiered' hot_count='768'/>
<task_queued compile_id='4' method='java/lang/AbstractStringBuilder ensureCapacityInternal (I)V' bytes='27' count='896' iicount='896' level='3' stamp='0.191' comment='tiered' hot_count='896'/>
<task_queued compile_id='5' method='java/lang/String indexOf (I)I' bytes='7' count='640' iicount='640' level='3' stamp='0.191' comment='tiered' hot_count='640'/>
<task_queued compile_id='6' method='java/lang/String indexOf (II)I' bytes='70' count='653' backedge_count='29696' iicount='653' level='3' stamp='0.191' comment='tiered' hot_count='653'/>
<writer thread='140433403774720'/>
<task_queued compile_id='7' method='java/lang/String hashCode ()I' bytes='55' count='853' backedge_count='19456' iicount='853' level='3' stamp='0.193' comment='tiered' hot_count='853'/>
<blob name='MethodHandlesAdapterBlob' size='32000'>
<sect index='1' size='32000' free='31628'/>
</blob>
<writer thread='140432895375104'/>
<task_queued compile_id='8' method='java/lang/String charAt (I)C' bytes='29' count='15360' iicount='15360' stamp='0.194' comment='tiered' hot_count='15360'/>
<writer thread='140432894322432'/>
Decoding compiled method 0x00007fb91ceed990:
Code:
Argument 0 is unknown.RIP: 0x7fb91ceedae0 Code size: 0x000000d8
[Entry Point]
[Constants]
  # {method} {0x00007fb916581db0} &apos;charAt&apos; &apos;(I)C&apos; in &apos;java/lang/String&apos;
  # this:     rsi:rsi   = &apos;java/lang/String&apos;
  # parm0:    rdx       = int
  #           [sp+0x30]  (sp of caller)
  0x00007fb91ceedae0: 448b5608            mov       r10d,dword ptr [rsi+8h]
  0x00007fb91ceedae4: 49c1e203            shl       r10,3h
  0x00007fb91ceedae8: 493bc2              cmp       rax,r10
  0x00007fb91ceedaeb: 0f856fc3f3ff        jne       7fb91ce29e60h
                                                ;   {runtime_call}
  0x00007fb91ceedaf1: 666690              nop
  0x00007fb91ceedaf4: 0f1f840000000000    nop       dword ptr [rax+rax+0h]
  0x00007fb91ceedafc: 66666690            nop
[Verified Entry Point]
  0x00007fb91ceedb00: 89842400c0feff      mov       dword ptr [rsp+0fffffffffffec000h],eax
  0x00007fb91ceedb07: 55                  push      rbp
  0x00007fb91ceedb08: 4883ec20            sub       rsp,20h
                                                ;*synchronization entry
                                                ; - java.lang.String::charAt@-1 (line 657)

  0x00007fb91ceedb0c: 85d2                test      edx,edx
  0x00007fb91ceedb0e: 7c3d                jl        7fb91ceedb4dh
                                                ;*iflt
                                                ; - java.lang.String::charAt@1 (line 657)

  0x00007fb91ceedb10: 448b560c            mov       r10d,dword ptr [rsi+0ch]
                                                ;*getfield value
                                                ; - java.lang.String::charAt@6 (line 657)

  0x00007fb91ceedb14: 438b6cd40c          mov       ebp,dword ptr [r12+r10*8+0ch]
                                                ;*arraylength
                                                ; - java.lang.String::charAt@9 (line 657)
                                                ; implicit exception: dispatches to 0x00007fb91ceedb7d
  0x00007fb91ceedb19: 3bd5                cmp       edx,ebp
  0x00007fb91ceedb1b: 7d48                jnl       7fb91ceedb65h
                                                ;*if_icmplt
                                                ; - java.lang.String::charAt@10 (line 657)

  0x00007fb91ceedb1d: 3bd5                cmp       edx,ebp
  0x00007fb91ceedb1f: 7316                jnb       7fb91ceedb37h
  0x00007fb91ceedb21: 49c1e203            shl       r10,3h
  0x00007fb91ceedb25: 410fb7445210        movzx     eax,word ptr [r10+rdx*2+10h]
  0x00007fb91ceedb2b: 4883c420            add       rsp,20h
  0x00007fb91ceedb2f: 5d                  pop       rbp
  0x00007fb91ceedb30: 8505ca543816        test      dword ptr [7fb933273000h],eax
                                                ;   {poll_return}
  0x00007fb91ceedb36: c3                  ret
  0x00007fb91ceedb37: bee4ffffff          mov       esi,0ffffffe4h
  0x00007fb91ceedb3c: 8bea                mov       ebp,edx
  0x00007fb91ceedb3e: 44891424            mov       dword ptr [rsp],r10d
  0x00007fb91ceedb42: 90                  nop
  0x00007fb91ceedb43: e858bbf3ff          call      7fb91ce296a0h
                                                ; OopMap{[0]=NarrowOop off=104}
                                                ;*caload
                                                ; - java.lang.String::charAt@27 (line 660)
                                                ;   {runtime_call}
  0x00007fb91ceedb48: e8438d0515          call      7fb931f46890h
                                                ;*caload
                                                ; - java.lang.String::charAt@27 (line 660)
                                                ;   {runtime_call}
  0x00007fb91ceedb4d: 488bee              mov       rbp,rsi
  0x00007fb91ceedb50: 89542404            mov       dword ptr [rsp+4h],edx
  0x00007fb91ceedb54: be65ffffff          mov       esi,0ffffff65h
  0x00007fb91ceedb59: 6690                nop
  0x00007fb91ceedb5b: e840bbf3ff          call      7fb91ce296a0h
                                                ; OopMap{rbp=Oop off=128}
                                                ;*iflt
                                                ; - java.lang.String::charAt@1 (line 657)
                                                ;   {runtime_call}
  0x00007fb91ceedb60: e82b8d0515          call      7fb931f46890h
                                                ;*iflt
                                                ; - java.lang.String::charAt@1 (line 657)
                                                ;   {runtime_call}
  0x00007fb91ceedb65: 48893424            mov       qword ptr [rsp],rsi
  0x00007fb91ceedb69: 8954240c            mov       dword ptr [rsp+0ch],edx
  0x00007fb91ceedb6d: be65ffffff          mov       esi,0ffffff65h
  0x00007fb91ceedb72: 90                  nop
  0x00007fb91ceedb73: e828bbf3ff          call      7fb91ce296a0h
                                                ; OopMap{[0]=Oop off=152}
                                                ;*if_icmplt
                                                ; - java.lang.String::charAt@10 (line 657)
                                                ;   {runtime_call}
  0x00007fb91ceedb78: e8138d0515          call      7fb931f46890h
                                                ;*if_icmplt
                                                ; - java.lang.String::charAt@10 (line 657)
                                                ;   {runtime_call}
  0x00007fb91ceedb7d: bef6ffffff          mov       esi,0fffffff6h
  0x00007fb91ceedb82: 90                  nop
  0x00007fb91ceedb83: e818bbf3ff          call      7fb91ce296a0h
                                                ; OopMap{off=168}
                                                ;*arraylength
                                                ; - java.lang.String::charAt@9 (line 657)
                                                ;   {runtime_call}
  0x00007fb91ceedb88: e8038d0515          call      7fb931f46890h
                                                ;*arraylength
                                                ; - java.lang.String::charAt@9 (line 657)
                                                ;   {runtime_call}
  0x00007fb91ceedb8d: f4                  hlt
  0x00007fb91ceedb8e: f4                  hlt
  0x00007fb91ceedb8f: f4                  hlt
  0x00007fb91ceedb90: f4                  hlt
  0x00007fb91ceedb91: f4                  hlt
  0x00007fb91ceedb92: f4                  hlt
  0x00007fb91ceedb93: f4                  hlt
  0x00007fb91ceedb94: f4                  hlt
  0x00007fb91ceedb95: f4                  hlt
  0x00007fb91ceedb96: f4                  hlt
  0x00007fb91ceedb97: f4                  hlt
  0x00007fb91ceedb98: f4                  hlt
  0x00007fb91ceedb99: f4                  hlt
  0x00007fb91ceedb9a: f4                  hlt
  0x00007fb91ceedb9b: f4                  hlt
  0x00007fb91ceedb9c: f4                  hlt
  0x00007fb91ceedb9d: f4                  hlt
  0x00007fb91ceedb9e: f4                  hlt
  0x00007fb91ceedb9f: f4                  hlt
[Exception Handler]
[Stub Code]
  0x00007fb91ceedba0: e93b48f6ff          jmp       7fb91ce523e0h
                                                ;   {no_reloc}
[Deopt Handler Code]
  0x00007fb91ceedba5: e800000000          call      7fb91ceedbaah
  0x00007fb91ceedbaa: 48832c2405          sub       qword ptr [rsp],5h
  0x00007fb91ceedbaf: e94cd9f3ff          jmp       7fb91ce2b500h
                                                ;   {runtime_call}
  0x00007fb91ceedbb4: f4                  hlt
  0x00007fb91ceedbb5: f4                  hlt
  0x00007fb91ceedbb6: f4                  hlt
  0x00007fb91ceedbb7: f4                  hlt
<nmethod compile_id='8' compiler='C2' level='4' entry='0x00007fb91ceedae0' size='928' address='0x00007fb91ceed990' relocation_offset='296' insts_offset='336' stub_offset='528' scopes_data_offset='560' scopes_pcs_offset='664' dependencies_offset='904' nul_chk_table_offset='912' method='java/lang/String charAt (I)C' bytes='29' count='15462' iicount='15462' stamp='0.209'/>
<writer thread='140433403774720'/>
<task_queued compile_id='9' method='java/lang/String equals (Ljava/lang/Object;)Z' bytes='81' count='1018' backedge_count='2958' iicount='1018' level='3' stamp='0.209' comment='tiered' hot_count='1018'/>
<task_queued compile_id='10' method='sun/instrument/TransformerManager getSnapshotTransformerList ()[Lsun/instrument/TransformerManager$TransformerInfo;' bytes='5' count='128' iicount='128' level='1' stamp='0.209' comment='tiered' hot_count='128'/>
<writer thread='140432885225216'/>
Decoding compiled method 0x00007fb91ceef750:
Code:
Argument 0 is unknown.RIP: 0x7fb91ceef8c0 Code size: 0x00000290
[Entry Point]
[Constants]
  # {method} {0x00007fb916583000} &apos;hashCode&apos; &apos;()I&apos; in &apos;java/lang/String&apos;
  #           [sp+0x40]  (sp of caller)
  0x00007fb91ceef8c0: 448b5608            mov       r10d,dword ptr [rsi+8h]
  0x00007fb91ceef8c4: 49c1e203            shl       r10,3h
  0x00007fb91ceef8c8: 4c3bd0              cmp       r10,rax
  0x00007fb91ceef8cb: 0f858fa5f3ff        jne       7fb91ce29e60h
                                                ;   {runtime_call}
  0x00007fb91ceef8d1: 6666660f1f840000000000 nop       word ptr [rax+rax+0h]
  0x00007fb91ceef8dc: 66666690            nop
[Verified Entry Point]
  0x00007fb91ceef8e0: 89842400c0feff      mov       dword ptr [rsp+0fffffffffffec000h],eax
  0x00007fb91ceef8e7: 55                  push      rbp
  0x00007fb91ceef8e8: 4883ec30            sub       rsp,30h
  0x00007fb91ceef8ec: 48b830027516b97f0000 mov       rax,7fb916750230h
                                                ;   {metadata(method data for {method} {0x00007fb916583000} &apos;hashCode&apos; &apos;()I&apos; in &apos;java/lang/String&apos;)}
  0x00007fb91ceef8f6: 8bb8dc000000        mov       edi,dword ptr [rax+0dch]
  0x00007fb91ceef8fc: 83c708              add       edi,8h
  0x00007fb91ceef8ff: 89b8dc000000        mov       dword ptr [rax+0dch],edi
  0x00007fb91ceef905: 48b800305816b97f0000 mov       rax,7fb916583000h
                                                ;   {metadata({method} {0x00007fb916583000} &apos;hashCode&apos; &apos;()I&apos; in &apos;java/lang/String&apos;)}
  0x00007fb91ceef90f: 81e7f81f0000        and       edi,1ff8h
  0x00007fb91ceef915: 83ff00              cmp       edi,0h
  0x00007fb91ceef918: 0f8433010000        je        7fb91ceefa51h
                                                ;*aload_0
                                                ; - java.lang.String::hashCode@0 (line 1466)

  0x00007fb91ceef91e: 8b4610              mov       eax,dword ptr [rsi+10h]
                                                ;*getfield hash
                                                ; - java.lang.String::hashCode@1 (line 1466)

  0x00007fb91ceef921: 83f800              cmp       eax,0h
  0x00007fb91ceef924: 48bf30027516b97f0000 mov       rdi,7fb916750230h
                                                ;   {metadata(method data for {method} {0x00007fb916583000} &apos;hashCode&apos; &apos;()I&apos; in &apos;java/lang/String&apos;)}
  0x00007fb91ceef92e: 48bb0801000000000000 mov       rbx,108h
  0x00007fb91ceef938: 0f850a000000        jne       7fb91ceef948h
  0x00007fb91ceef93e: 48bb1801000000000000 mov       rbx,118h
  0x00007fb91ceef948: 488b141f            mov       rdx,qword ptr [rdi+rbx]
  0x00007fb91ceef94c: 488d5201            lea       rdx,[rdx+1h]
  0x00007fb91ceef950: 4889141f            mov       qword ptr [rdi+rbx],rdx
  0x00007fb91ceef954: 0f85eb000000        jne       7fb91ceefa45h
                                                ;*ifne
                                                ; - java.lang.String::hashCode@6 (line 1467)

  0x00007fb91ceef95a: 8b7e0c              mov       edi,dword ptr [rsi+0ch]
  0x00007fb91ceef95d: 48c1e703            shl       rdi,3h
                                                ;*getfield value
                                                ; - java.lang.String::hashCode@10 (line 1467)

  0x00007fb91ceef961: 8b5f0c              mov       ebx,dword ptr [rdi+0ch]
                                                ;*arraylength
                                                ; - java.lang.String::hashCode@13 (line 1467)
                                                ; implicit exception: dispatches to 0x00007fb91ceefa68
  0x00007fb91ceef964: 83fb00              cmp       ebx,0h
  0x00007fb91ceef967: 48ba30027516b97f0000 mov       rdx,7fb916750230h
                                                ;   {metadata(method data for {method} {0x00007fb916583000} &apos;hashCode&apos; &apos;()I&apos; in &apos;java/lang/String&apos;)}
  0x00007fb91ceef971: 48b92801000000000000 mov       rcx,128h
  0x00007fb91ceef97b: 0f8e0a000000        jle       7fb91ceef98bh
  0x00007fb91ceef981: 48b93801000000000000 mov       rcx,138h
  0x00007fb91ceef98b: 4c8b040a            mov       r8,qword ptr [rdx+rcx]
  0x00007fb91ceef98f: 4d8d4001            lea       r8,[r8+1h]
  0x00007fb91ceef993: 4c89040a            mov       qword ptr [rdx+rcx],r8
  0x00007fb91ceef997: 0f8ea8000000        jle       7fb91ceefa45h
                                                ;*ifle
                                                ; - java.lang.String::hashCode@14 (line 1467)

  0x00007fb91ceef99d: ba00000000          mov       edx,0h
  0x00007fb91ceef9a2: e963000000          jmp       7fb91ceefa0ah
                                                ;*iload_3
                                                ; - java.lang.String::hashCode@24 (line 1470)

  0x00007fb91ceef9a7: 90                  nop
  0x00007fb91ceef9a8: 4863ca              movsxd    rcx,edx
  0x00007fb91ceef9ab: 0fb74c4f10          movzx     ecx,word ptr [rdi+rcx*2+10h]
                                                ;*caload
                                                ; - java.lang.String::hashCode@39 (line 1471)

  0x00007fb91ceef9b0: 4c8bc0              mov       r8,rax
  0x00007fb91ceef9b3: c1e005              shl       eax,5h
  0x00007fb91ceef9b6: 412bc0              sub       eax,r8d
  0x00007fb91ceef9b9: 03c1                add       eax,ecx
  0x00007fb91ceef9bb: ffc2                inc       edx
  0x00007fb91ceef9bd: 48b930027516b97f0000 mov       rcx,7fb916750230h
                                                ;   {metadata(method data for {method} {0x00007fb916583000} &apos;hashCode&apos; &apos;()I&apos; in &apos;java/lang/String&apos;)}
  0x00007fb91ceef9c7: 448b81e0000000      mov       r8d,dword ptr [rcx+0e0h]
  0x00007fb91ceef9ce: 4183c008            add       r8d,8h
  0x00007fb91ceef9d2: 448981e0000000      mov       dword ptr [rcx+0e0h],r8d
  0x00007fb91ceef9d9: 48b900305816b97f0000 mov       rcx,7fb916583000h
                                                ;   {metadata({method} {0x00007fb916583000} &apos;hashCode&apos; &apos;()I&apos; in &apos;java/lang/String&apos;)}
  0x00007fb91ceef9e3: 4181e0f8ff0000      and       r8d,0fff8h
  0x00007fb91ceef9ea: 4183f800            cmp       r8d,0h
  0x00007fb91ceef9ee: 0f8479000000        je        7fb91ceefa6dh
                                                ; OopMap{rdi=Oop rsi=Oop off=308}
                                                ;*goto
                                                ; - java.lang.String::hashCode@45 (line 1470)

  0x00007fb91ceef9f4: 850506373816        test      dword ptr [7fb933273100h],eax
                                                ;   {poll}
  0x00007fb91ceef9fa: 48b930027516b97f0000 mov       rcx,7fb916750230h
                                                ;   {metadata(method data for {method} {0x00007fb916583000} &apos;hashCode&apos; &apos;()I&apos; in &apos;java/lang/String&apos;)}
  0x00007fb91ceefa04: ff8168010000        inc       dword ptr [rcx+168h]
                                                ;*goto
                                                ; - java.lang.String::hashCode@45 (line 1470)

  0x00007fb91ceefa0a: 3bd3                cmp       edx,ebx
  0x00007fb91ceefa0c: 48b930027516b97f0000 mov       rcx,7fb916750230h
                                                ;   {metadata(method data for {method} {0x00007fb916583000} &apos;hashCode&apos; &apos;()I&apos; in &apos;java/lang/String&apos;)}
  0x00007fb91ceefa16: 49b84801000000000000 mov       r8,148h
  0x00007fb91ceefa20: 0f8d0a000000        jnl       7fb91ceefa30h
  0x00007fb91ceefa26: 49b85801000000000000 mov       r8,158h
  0x00007fb91ceefa30: 4e8b0c01            mov       r9,qword ptr [rcx+r8]
  0x00007fb91ceefa34: 4d8d4901            lea       r9,[r9+1h]
  0x00007fb91ceefa38: 4e890c01            mov       qword ptr [rcx+r8],r9
  0x00007fb91ceefa3c: 0f8c66ffffff        jl        7fb91ceef9a8h
                                                ;*if_icmpge
                                                ; - java.lang.String::hashCode@30 (line 1470)

  0x00007fb91ceefa42: 894610              mov       dword ptr [rsi+10h],eax
                                                ;*putfield hash
                                                ; - java.lang.String::hashCode@50 (line 1473)

  0x00007fb91ceefa45: 4883c430            add       rsp,30h
  0x00007fb91ceefa49: 5d                  pop       rbp
  0x00007fb91ceefa4a: 8505b0363816        test      dword ptr [7fb933273100h],eax
                                                ;   {poll_return}
  0x00007fb91ceefa50: c3                  ret
  0x00007fb91ceefa51: 4889442408          mov       qword ptr [rsp+8h],rax
  0x00007fb91ceefa56: 48c70424ffffffff    mov       qword ptr [rsp],0ffffffffffffffffh
  0x00007fb91ceefa5e: e83df8ffff          call      7fb91ceef2a0h
                                                ; OopMap{rsi=Oop off=419}
                                                ;*synchronization entry
                                                ; - java.lang.String::hashCode@-1 (line 1466)
                                                ;   {runtime_call}
  0x00007fb91ceefa63: e9b6feffff          jmp       7fb91ceef91eh
  0x00007fb91ceefa68: e853d8ffff          call      7fb91ceed2c0h
                                                ; OopMap{rsi=Oop rdi=Oop off=429}
                                                ;*arraylength
                                                ; - java.lang.String::hashCode@13 (line 1467)
                                                ;   {runtime_call}
  0x00007fb91ceefa6d: 48894c2408          mov       qword ptr [rsp+8h],rcx
  0x00007fb91ceefa72: 48c704242d000000    mov       qword ptr [rsp],2dh
  0x00007fb91ceefa7a: e821f8ffff          call      7fb91ceef2a0h
                                                ; OopMap{rdi=Oop rsi=Oop off=447}
                                                ;*goto
                                                ; - java.lang.String::hashCode@45 (line 1470)
                                                ;   {runtime_call}
  0x00007fb91ceefa7f: e970ffffff          jmp       7fb91ceef9f4h
  0x00007fb91ceefa84: 90                  nop
  0x00007fb91ceefa85: 90                  nop
  0x00007fb91ceefa86: 498b87a8020000      mov       rax,qword ptr [r15+2a8h]
  0x00007fb91ceefa8d: 49ba0000000000000000 mov       r10,0h
  0x00007fb91ceefa97: 4d8997a8020000      mov       qword ptr [r15+2a8h],r10
  0x00007fb91ceefa9e: 49ba0000000000000000 mov       r10,0h
  0x00007fb91ceefaa8: 4d8997b0020000      mov       qword ptr [r15+2b0h],r10
  0x00007fb91ceefaaf: 4883c430            add       rsp,30h
  0x00007fb91ceefab3: 5d                  pop       rbp
  0x00007fb91ceefab4: e9e72df6ff          jmp       7fb91ce528a0h
                                                ;   {runtime_call}
  0x00007fb91ceefab9: f4                  hlt
  0x00007fb91ceefaba: f4                  hlt
  0x00007fb91ceefabb: f4                  hlt
  0x00007fb91ceefabc: f4                  hlt
  0x00007fb91ceefabd: f4                  hlt
  0x00007fb91ceefabe: f4                  hlt
  0x00007fb91ceefabf: f4                  hlt
[Exception Handler]
[Stub Code]
  0x00007fb91ceefac0: e81b2af6ff          call      7fb91ce524e0h
                                                ;   {no_reloc}
  0x00007fb91ceefac5: 48896424d8          mov       qword ptr [rsp+0ffffffffffffffd8h],rsp
  0x00007fb91ceefaca: 4881ec80000000      sub       rsp,80h
  0x00007fb91ceefad1: 4889442478          mov       qword ptr [rsp+78h],rax
  0x00007fb91ceefad6: 48894c2470          mov       qword ptr [rsp+70h],rcx
  0x00007fb91ceefadb: 4889542468          mov       qword ptr [rsp+68h],rdx
  0x00007fb91ceefae0: 48895c2460          mov       qword ptr [rsp+60h],rbx
  0x00007fb91ceefae5: 48896c2450          mov       qword ptr [rsp+50h],rbp
  0x00007fb91ceefaea: 4889742448          mov       qword ptr [rsp+48h],rsi
  0x00007fb91ceefaef: 48897c2440          mov       qword ptr [rsp+40h],rdi
  0x00007fb91ceefaf4: 4c89442438          mov       qword ptr [rsp+38h],r8
  0x00007fb91ceefaf9: 4c894c2430          mov       qword ptr [rsp+30h],r9
  0x00007fb91ceefafe: 4c89542428          mov       qword ptr [rsp+28h],r10
  0x00007fb91ceefb03: 4c895c2420          mov       qword ptr [rsp+20h],r11
  0x00007fb91ceefb08: 4c89642418          mov       qword ptr [rsp+18h],r12
  0x00007fb91ceefb0d: 4c896c2410          mov       qword ptr [rsp+10h],r13
  0x00007fb91ceefb12: 4c89742408          mov       qword ptr [rsp+8h],r14
  0x00007fb91ceefb17: 4c893c24            mov       qword ptr [rsp],r15
  0x00007fb91ceefb1b: 48bff6591532b97f0000 mov       rdi,7fb9321559f6h
                                                ;   {external_word}
  0x00007fb91ceefb25: 48bec5faee1cb97f0000 mov       rsi,7fb91ceefac5h
                                                ;   {internal_word}
  0x00007fb91ceefb2f: 488bd4              mov       rdx,rsp
  0x00007fb91ceefb32: 4883e4f0            and       rsp,0fffffffffffffff0h
  0x00007fb91ceefb36: e82597f614          call      7fb931e59260h
                                                ;   {runtime_call}
  0x00007fb91ceefb3b: f4                  hlt
[Deopt Handler Code]
  0x00007fb91ceefb3c: 49ba3cfbee1cb97f0000 mov       r10,7fb91ceefb3ch
                                                ;   {section_word}
  0x00007fb91ceefb46: 4152                push      r10
  0x00007fb91ceefb48: e9b3b9f3ff          jmp       7fb91ce2b500h
                                                ;   {runtime_call}
  0x00007fb91ceefb4d: f4                  hlt
  0x00007fb91ceefb4e: f4                  hlt
  0x00007fb91ceefb4f: f4                  hlt
<nmethod compile_id='7' compiler='C1' level='3' entry='0x00007fb91ceef8c0' size='1448' address='0x00007fb91ceef750' relocation_offset='296' insts_offset='368' stub_offset='880' scopes_data_offset='1032' scopes_pcs_offset='1152' dependencies_offset='1424' nul_chk_table_offset='1432' method='java/lang/String hashCode ()I' bytes='55' count='869' backedge_count='19794' iicount='869' stamp='0.233'/>
Decoding compiled method 0x00007fb91cef0310:
Code:
Argument 0 is unknown.RIP: 0x7fb91cef04a0 Code size: 0x00000388
[Entry Point]
[Constants]
  # {method} {0x00007fb916583180} &apos;indexOf&apos; &apos;(II)I&apos; in &apos;java/lang/String&apos;
  # this:     rsi:rsi   = &apos;java/lang/String&apos;
  # parm0:    rdx       = int
  # parm1:    rcx       = int
  #           [sp+0x40]  (sp of caller)
  0x00007fb91cef04a0: 448b5608            mov       r10d,dword ptr [rsi+8h]
  0x00007fb91cef04a4: 49c1e203            shl       r10,3h
  0x00007fb91cef04a8: 4c3bd0              cmp       r10,rax
  0x00007fb91cef04ab: 0f85af99f3ff        jne       7fb91ce29e60h
                                                ;   {runtime_call}
  0x00007fb91cef04b1: 6666660f1f840000000000 nop       word ptr [rax+rax+0h]
  0x00007fb91cef04bc: 66666690            nop
[Verified Entry Point]
  0x00007fb91cef04c0: 89842400c0feff      mov       dword ptr [rsp+0fffffffffffec000h],eax
  0x00007fb91cef04c7: 55                  push      rbp
  0x00007fb91cef04c8: 4883ec30            sub       rsp,30h
  0x00007fb91cef04cc: 48b820247516b97f0000 mov       rax,7fb916752420h
                                                ;   {metadata(method data for {method} {0x00007fb916583180} &apos;indexOf&apos; &apos;(II)I&apos; in &apos;java/lang/String&apos;)}
  0x00007fb91cef04d6: 8bb8dc000000        mov       edi,dword ptr [rax+0dch]
  0x00007fb91cef04dc: 83c708              add       edi,8h
  0x00007fb91cef04df: 89b8dc000000        mov       dword ptr [rax+0dch],edi
  0x00007fb91cef04e5: 48b880315816b97f0000 mov       rax,7fb916583180h
                                                ;   {metadata({method} {0x00007fb916583180} &apos;indexOf&apos; &apos;(II)I&apos; in &apos;java/lang/String&apos;)}
  0x00007fb91cef04ef: 81e7f81f0000        and       edi,1ff8h
  0x00007fb91cef04f5: 83ff00              cmp       edi,0h
  0x00007fb91cef04f8: 0f8403020000        je        7fb91cef0701h
                                                ;*aload_0
                                                ; - java.lang.String::indexOf@0 (line 1546)

  0x00007fb91cef04fe: 8b460c              mov       eax,dword ptr [rsi+0ch]
  0x00007fb91cef0501: 48c1e003            shl       rax,3h
                                                ;*getfield value
                                                ; - java.lang.String::indexOf@1 (line 1546)

  0x00007fb91cef0505: 8b780c              mov       edi,dword ptr [rax+0ch]
                                                ;*arraylength
                                                ; - java.lang.String::indexOf@4 (line 1546)
                                                ; implicit exception: dispatches to 0x00007fb91cef0718
  0x00007fb91cef0508: 83f900              cmp       ecx,0h
  0x00007fb91cef050b: 48bb20247516b97f0000 mov       rbx,7fb916752420h
                                                ;   {metadata(method data for {method} {0x00007fb916583180} &apos;indexOf&apos; &apos;(II)I&apos; in &apos;java/lang/String&apos;)}
  0x00007fb91cef0515: 49b80801000000000000 mov       r8,108h
  0x00007fb91cef051f: 0f8d0a000000        jnl       7fb91cef052fh
  0x00007fb91cef0525: 49b81801000000000000 mov       r8,118h
  0x00007fb91cef052f: 4e8b0c03            mov       r9,qword ptr [rbx+r8]
  0x00007fb91cef0533: 4d8d4901            lea       r9,[r9+1h]
  0x00007fb91cef0537: 4e890c03            mov       qword ptr [rbx+r8],r9
  0x00007fb91cef053b: 0f8d1a000000        jnl       7fb91cef055bh
                                                ;*ifge
                                                ; - java.lang.String::indexOf@7 (line 1547)

  0x00007fb91cef0541: 48b920247516b97f0000 mov       rcx,7fb916752420h
                                                ;   {metadata(method data for {method} {0x00007fb916583180} &apos;indexOf&apos; &apos;(II)I&apos; in &apos;java/lang/String&apos;)}
  0x00007fb91cef054b: ff8128010000        inc       dword ptr [rcx+128h]
  0x00007fb91cef0551: b900000000          mov       ecx,0h
  0x00007fb91cef0556: e938000000          jmp       7fb91cef0593h
                                                ;*goto
                                                ; - java.lang.String::indexOf@12 (line 1548)

  0x00007fb91cef055b: 3bcf                cmp       ecx,edi
  0x00007fb91cef055d: 48bb20247516b97f0000 mov       rbx,7fb916752420h
                                                ;   {metadata(method data for {method} {0x00007fb916583180} &apos;indexOf&apos; &apos;(II)I&apos; in &apos;java/lang/String&apos;)}
  0x00007fb91cef0567: 49b84001000000000000 mov       r8,140h
  0x00007fb91cef0571: 0f8c0a000000        jl        7fb91cef0581h
  0x00007fb91cef0577: 49b85001000000000000 mov       r8,150h
  0x00007fb91cef0581: 4e8b0c03            mov       r9,qword ptr [rbx+r8]
  0x00007fb91cef0585: 4d8d4901            lea       r9,[r9+1h]
  0x00007fb91cef0589: 4e890c03            mov       qword ptr [rbx+r8],r9
  0x00007fb91cef058d: 0f8d5d010000        jnl       7fb91cef06f0h
                                                ;*if_icmplt
                                                ; - java.lang.String::indexOf@17 (line 1549)

  0x00007fb91cef0593: 81fa00000100        cmp       edx,10000h
  0x00007fb91cef0599: 48bb20247516b97f0000 mov       rbx,7fb916752420h
                                                ;   {metadata(method data for {method} {0x00007fb916583180} &apos;indexOf&apos; &apos;(II)I&apos; in &apos;java/lang/String&apos;)}
  0x00007fb91cef05a3: 49b86001000000000000 mov       r8,160h
  0x00007fb91cef05ad: 0f8d0a000000        jnl       7fb91cef05bdh
  0x00007fb91cef05b3: 49b87001000000000000 mov       r8,170h
  0x00007fb91cef05bd: 4e8b0c03            mov       r9,qword ptr [rbx+r8]
  0x00007fb91cef05c1: 4d8d4901            lea       r9,[r9+1h]
  0x00007fb91cef05c5: 4e890c03            mov       qword ptr [rbx+r8],r9
  0x00007fb91cef05c9: 0f8df9000000        jnl       7fb91cef06c8h
  0x00007fb91cef05cf: e997000000          jmp       7fb91cef066bh
                                                ;*if_icmpge
                                                ; - java.lang.String::indexOf@25 (line 1554)

  0x00007fb91cef05d4: 0f1f4000            nop       dword ptr [rax+0h]
  0x00007fb91cef05d8: 4863f1              movsxd    rsi,ecx
  0x00007fb91cef05db: 3b480c              cmp       ecx,dword ptr [rax+0ch]
  0x00007fb91cef05de: 0f8339010000        jnb       7fb91cef071dh
  0x00007fb91cef05e4: 0fb7747010          movzx     esi,word ptr [rax+rsi*2+10h]
                                                ;*caload
                                                ; - java.lang.String::indexOf@47 (line 1559)

  0x00007fb91cef05e9: 3bf2                cmp       esi,edx
  0x00007fb91cef05eb: 48be20247516b97f0000 mov       rsi,7fb916752420h
                                                ;   {metadata(method data for {method} {0x00007fb916583180} &apos;indexOf&apos; &apos;(II)I&apos; in &apos;java/lang/String&apos;)}
  0x00007fb91cef05f5: 48bba001000000000000 mov       rbx,1a0h
  0x00007fb91cef05ff: 0f850a000000        jne       7fb91cef060fh
  0x00007fb91cef0605: 48bbb001000000000000 mov       rbx,1b0h
  0x00007fb91cef060f: 4c8b041e            mov       r8,qword ptr [rsi+rbx]
  0x00007fb91cef0613: 4d8d4001            lea       r8,[r8+1h]
  0x00007fb91cef0617: 4c89041e            mov       qword ptr [rsi+rbx],r8
  0x00007fb91cef061b: 0f8487000000        je        7fb91cef06a8h
                                                ;*if_icmpne
                                                ; - java.lang.String::indexOf@49 (line 1559)

  0x00007fb91cef0621: ffc1                inc       ecx
  0x00007fb91cef0623: 48be20247516b97f0000 mov       rsi,7fb916752420h
                                                ;   {metadata(method data for {method} {0x00007fb916583180} &apos;indexOf&apos; &apos;(II)I&apos; in &apos;java/lang/String&apos;)}
  0x00007fb91cef062d: 8b9ee0000000        mov       ebx,dword ptr [rsi+0e0h]
  0x00007fb91cef0633: 83c308              add       ebx,8h
  0x00007fb91cef0636: 899ee0000000        mov       dword ptr [rsi+0e0h],ebx
  0x00007fb91cef063c: 48be80315816b97f0000 mov       rsi,7fb916583180h
                                                ;   {metadata({method} {0x00007fb916583180} &apos;indexOf&apos; &apos;(II)I&apos; in &apos;java/lang/String&apos;)}
  0x00007fb91cef0646: 81e3f8ff0000        and       ebx,0fff8h
  0x00007fb91cef064c: 83fb00              cmp       ebx,0h
  0x00007fb91cef064f: 0f84d1000000        je        7fb91cef0726h
                                                ; OopMap{rax=Oop off=437}
                                                ;*goto
                                                ; - java.lang.String::indexOf@58 (line 1558)

  0x00007fb91cef0655: 8505a52a3816        test      dword ptr [7fb933273100h],eax
                                                ;   {poll}
  0x00007fb91cef065b: 48be20247516b97f0000 mov       rsi,7fb916752420h
                                                ;   {metadata(method data for {method} {0x00007fb916583180} &apos;indexOf&apos; &apos;(II)I&apos; in &apos;java/lang/String&apos;)}
  0x00007fb91cef0665: ff86c0010000        inc       dword ptr [rsi+1c0h]
                                                ;*goto
                                                ; - java.lang.String::indexOf@58 (line 1558)

  0x00007fb91cef066b: 3bcf                cmp       ecx,edi
  0x00007fb91cef066d: 48be20247516b97f0000 mov       rsi,7fb916752420h
                                                ;   {metadata(method data for {method} {0x00007fb916583180} &apos;indexOf&apos; &apos;(II)I&apos; in &apos;java/lang/String&apos;)}
  0x00007fb91cef0677: 48bb8001000000000000 mov       rbx,180h
  0x00007fb91cef0681: 0f8d0a000000        jnl       7fb91cef0691h
  0x00007fb91cef0687: 48bb9001000000000000 mov       rbx,190h
  0x00007fb91cef0691: 4c8b041e            mov       r8,qword ptr [rsi+rbx]
  0x00007fb91cef0695: 4d8d4001            lea       r8,[r8+1h]
  0x00007fb91cef0699: 4c89041e            mov       qword ptr [rsi+rbx],r8
  0x00007fb91cef069d: 0f8d14000000        jnl       7fb91cef06b7h
  0x00007fb91cef06a3: e930ffffff          jmp       7fb91cef05d8h
                                                ;*if_icmpge
                                                ; - java.lang.String::indexOf@40 (line 1558)

  0x00007fb91cef06a8: 488bc1              mov       rax,rcx
  0x00007fb91cef06ab: 4883c430            add       rsp,30h
  0x00007fb91cef06af: 5d                  pop       rbp
  0x00007fb91cef06b0: 85054a2a3816        test      dword ptr [7fb933273100h],eax
                                                ;   {poll_return}
  0x00007fb91cef06b6: c3                  ret   ;*ireturn
                                                ; - java.lang.String::indexOf@54 (line 1560)

  0x00007fb91cef06b7: b8ffffffff          mov       eax,0ffffffffh
  0x00007fb91cef06bc: 4883c430            add       rsp,30h
  0x00007fb91cef06c0: 5d                  pop       rbp
  0x00007fb91cef06c1: 8505392a3816        test      dword ptr [7fb933273100h],eax
                                                ;   {poll_return}
  0x00007fb91cef06c7: c3                  ret   ;*ireturn
                                                ; - java.lang.String::indexOf@62 (line 1563)

  0x00007fb91cef06c8: 488bfe              mov       rdi,rsi
  0x00007fb91cef06cb: 48bb20247516b97f0000 mov       rbx,7fb916752420h
                                                ;   {metadata(method data for {method} {0x00007fb916583180} &apos;indexOf&apos; &apos;(II)I&apos; in &apos;java/lang/String&apos;)}
  0x00007fb91cef06d5: 488383d801000001    add       qword ptr [rbx+1d8h],1h
  0x00007fb91cef06dd: 90                  nop
  0x00007fb91cef06de: 90                  nop
  0x00007fb91cef06df: e8bc99f3ff          call      7fb91ce2a0a0h
                                                ; OopMap{off=580}
                                                ;*invokespecial indexOfSupplementary
                                                ; - java.lang.String::indexOf@66 (line 1565)
                                                ;   {optimized virtual_call}
  0x00007fb91cef06e4: 4883c430            add       rsp,30h
  0x00007fb91cef06e8: 5d                  pop       rbp
  0x00007fb91cef06e9: 8505112a3816        test      dword ptr [7fb933273100h],eax
                                                ;   {poll_return}
  0x00007fb91cef06ef: c3                  ret   ;*ireturn
                                                ; - java.lang.String::indexOf@69 (line 1565)

  0x00007fb91cef06f0: b8ffffffff          mov       eax,0ffffffffh
  0x00007fb91cef06f5: 4883c430            add       rsp,30h
  0x00007fb91cef06f9: 5d                  pop       rbp
  0x00007fb91cef06fa: 8505002a3816        test      dword ptr [7fb933273100h],eax
                                                ;   {poll_return}
  0x00007fb91cef0700: c3                  ret
  0x00007fb91cef0701: 4889442408          mov       qword ptr [rsp+8h],rax
  0x00007fb91cef0706: 48c70424ffffffff    mov       qword ptr [rsp],0ffffffffffffffffh
  0x00007fb91cef070e: e88debffff          call      7fb91ceef2a0h
                                                ; OopMap{rsi=Oop off=627}
                                                ;*synchronization entry
                                                ; - java.lang.String::indexOf@-1 (line 1546)
                                                ;   {runtime_call}
  0x00007fb91cef0713: e9e6fdffff          jmp       7fb91cef04feh
  0x00007fb91cef0718: e8a3cbffff          call      7fb91ceed2c0h
                                                ; OopMap{rsi=Oop rax=Oop off=637}
                                                ;*arraylength
                                                ; - java.lang.String::indexOf@4 (line 1546)
                                                ;   {runtime_call}
  0x00007fb91cef071d: 48890c24            mov       qword ptr [rsp],rcx
  0x00007fb91cef0721: e8dac4ffff          call      7fb91ceecc00h
                                                ; OopMap{rax=Oop off=646}
                                                ;*caload
                                                ; - java.lang.String::indexOf@47 (line 1559)
                                                ;   {runtime_call}
  0x00007fb91cef0726: 4889742408          mov       qword ptr [rsp+8h],rsi
  0x00007fb91cef072b: 48c704243a000000    mov       qword ptr [rsp],3ah
  0x00007fb91cef0733: e868ebffff          call      7fb91ceef2a0h
                                                ; OopMap{rax=Oop off=664}
                                                ;*goto
                                                ; - java.lang.String::indexOf@58 (line 1558)
                                                ;   {runtime_call}
  0x00007fb91cef0738: e918ffffff          jmp       7fb91cef0655h
  0x00007fb91cef073d: 90                  nop
  0x00007fb91cef073e: 90                  nop
  0x00007fb91cef073f: 498b87a8020000      mov       rax,qword ptr [r15+2a8h]
  0x00007fb91cef0746: 49ba0000000000000000 mov       r10,0h
  0x00007fb91cef0750: 4d8997a8020000      mov       qword ptr [r15+2a8h],r10
  0x00007fb91cef0757: 49ba0000000000000000 mov       r10,0h
  0x00007fb91cef0761: 4d8997b0020000      mov       qword ptr [r15+2b0h],r10
  0x00007fb91cef0768: 4883c430            add       rsp,30h
  0x00007fb91cef076c: 5d                  pop       rbp
  0x00007fb91cef076d: e92e21f6ff          jmp       7fb91ce528a0h
                                                ;   {runtime_call}
  0x00007fb91cef0772: f4                  hlt
  0x00007fb91cef0773: f4                  hlt
  0x00007fb91cef0774: f4                  hlt
  0x00007fb91cef0775: f4                  hlt
  0x00007fb91cef0776: f4                  hlt
  0x00007fb91cef0777: f4                  hlt
  0x00007fb91cef0778: f4                  hlt
  0x00007fb91cef0779: f4                  hlt
  0x00007fb91cef077a: f4                  hlt
  0x00007fb91cef077b: f4                  hlt
  0x00007fb91cef077c: f4                  hlt
  0x00007fb91cef077d: f4                  hlt
  0x00007fb91cef077e: f4                  hlt
  0x00007fb91cef077f: f4                  hlt
[Stub Code]
  0x00007fb91cef0780: 90                  nop   ;   {no_reloc}
  0x00007fb91cef0781: 90                  nop
  0x00007fb91cef0782: 90                  nop
  0x00007fb91cef0783: 90                  nop
  0x00007fb91cef0784: 90                  nop
  0x00007fb91cef0785: 48bb0000000000000000 mov       rbx,0h
                                                ;   {static_stub}
  0x00007fb91cef078f: e9fbffffff          jmp       7fb91cef078fh
                                                ;   {runtime_call}
[Exception Handler]
  0x00007fb91cef0794: e8471df6ff          call      7fb91ce524e0h
                                                ;   {runtime_call}
  0x00007fb91cef0799: 48896424d8          mov       qword ptr [rsp+0ffffffffffffffd8h],rsp
  0x00007fb91cef079e: 4881ec80000000      sub       rsp,80h
  0x00007fb91cef07a5: 4889442478          mov       qword ptr [rsp+78h],rax
  0x00007fb91cef07aa: 48894c2470          mov       qword ptr [rsp+70h],rcx
  0x00007fb91cef07af: 4889542468          mov       qword ptr [rsp+68h],rdx
  0x00007fb91cef07b4: 48895c2460          mov       qword ptr [rsp+60h],rbx
  0x00007fb91cef07b9: 48896c2450          mov       qword ptr [rsp+50h],rbp
  0x00007fb91cef07be: 4889742448          mov       qword ptr [rsp+48h],rsi
  0x00007fb91cef07c3: 48897c2440          mov       qword ptr [rsp+40h],rdi
  0x00007fb91cef07c8: 4c89442438          mov       qword ptr [rsp+38h],r8
  0x00007fb91cef07cd: 4c894c2430          mov       qword ptr [rsp+30h],r9
  0x00007fb91cef07d2: 4c89542428          mov       qword ptr [rsp+28h],r10
  0x00007fb91cef07d7: 4c895c2420          mov       qword ptr [rsp+20h],r11
  0x00007fb91cef07dc: 4c89642418          mov       qword ptr [rsp+18h],r12
  0x00007fb91cef07e1: 4c896c2410          mov       qword ptr [rsp+10h],r13
  0x00007fb91cef07e6: 4c89742408          mov       qword ptr [rsp+8h],r14
  0x00007fb91cef07eb: 4c893c24            mov       qword ptr [rsp],r15
  0x00007fb91cef07ef: 48bff6591532b97f0000 mov       rdi,7fb9321559f6h
                                                ;   {external_word}
  0x00007fb91cef07f9: 48be9907ef1cb97f0000 mov       rsi,7fb91cef0799h
                                                ;   {internal_word}
  0x00007fb91cef0803: 488bd4              mov       rdx,rsp
  0x00007fb91cef0806: 4883e4f0            and       rsp,0fffffffffffffff0h
  0x00007fb91cef080a: e8518af614          call      7fb931e59260h
                                                ;   {runtime_call}
  0x00007fb91cef080f: f4                  hlt
[Deopt Handler Code]
  0x00007fb91cef0810: 49ba1008ef1cb97f0000 mov       r10,7fb91cef0810h
                                                ;   {section_word}
  0x00007fb91cef081a: 4152                push      r10
  0x00007fb91cef081c: e9dfacf3ff          jmp       7fb91ce2b500h
                                                ;   {runtime_call}
  0x00007fb91cef0821: f4                  hlt
  0x00007fb91cef0822: f4                  hlt
  0x00007fb91cef0823: f4                  hlt
  0x00007fb91cef0824: f4                  hlt
  0x00007fb91cef0825: f4                  hlt
  0x00007fb91cef0826: f4                  hlt
  0x00007fb91cef0827: f4                  hlt
<nmethod compile_id='6' compiler='C1' level='3' entry='0x00007fb91cef04a0' size='1848' address='0x00007fb91cef0310' relocation_offset='296' insts_offset='400' stub_offset='1136' scopes_data_offset='1312' scopes_pcs_offset='1472' dependencies_offset='1824' nul_chk_table_offset='1832' method='java/lang/String indexOf (II)I' bytes='70' count='767' backedge_count='29855' iicount='767' stamp='0.248'/>
<writer thread='140432895375104'/>
<task_queued compile_id='11' method='java/lang/AbstractStringBuilder append (Ljava/lang/String;)Ljava/lang/AbstractStringBuilder;' bytes='50' count='768' iicount='768' level='3' stamp='0.248' comment='tiered' hot_count='768'/>
<task_queued compile_id='12' method='java/lang/String getChars (II[CI)V' bytes='62' count='768' iicount='768' level='3' stamp='0.248' comment='tiered' hot_count='768'/>
<writer thread='140433403774720'/>
<task_queued compile_id='13' method='java/lang/Object &lt;init&gt; ()V' bytes='1' count='3968' iicount='3968' level='3' stamp='0.248' comment='tiered' hot_count='3968'/>
<task_queued compile_id='14' method='java/lang/String length ()I' bytes='6' count='2176' iicount='2176' level='3' stamp='0.249' comment='tiered' hot_count='2176'/>
<writer thread='140432885225216'/>
Decoding compiled method 0x00007fb91cef0a90:
Code:
Argument 0 is unknown.RIP: 0x7fb91cef0c20 Code size: 0x00000550
[Entry Point]
[Constants]
  # {method} {0x00007fb916582618} &apos;equals&apos; &apos;(Ljava/lang/Object;)Z&apos; in &apos;java/lang/String&apos;
  # this:     rsi:rsi   = &apos;java/lang/String&apos;
  # parm0:    rdx:rdx   = &apos;java/lang/Object&apos;
  #           [sp+0x40]  (sp of caller)
  0x00007fb91cef0c20: 448b5608            mov       r10d,dword ptr [rsi+8h]
  0x00007fb91cef0c24: 49c1e203            shl       r10,3h
  0x00007fb91cef0c28: 4c3bd0              cmp       r10,rax
  0x00007fb91cef0c2b: 0f852f92f3ff        jne       7fb91ce29e60h
                                                ;   {runtime_call}
  0x00007fb91cef0c31: 6666660f1f840000000000 nop       word ptr [rax+rax+0h]
  0x00007fb91cef0c3c: 66666690            nop
[Verified Entry Point]
  0x00007fb91cef0c40: 89842400c0feff      mov       dword ptr [rsp+0fffffffffffec000h],eax
  0x00007fb91cef0c47: 55                  push      rbp
  0x00007fb91cef0c48: 4883ec30            sub       rsp,30h
  0x00007fb91cef0c4c: 48b830be7616b97f0000 mov       rax,7fb91676be30h
                                                ;   {metadata(method data for {method} {0x00007fb916582618} &apos;equals&apos; &apos;(Ljava/lang/Object;)Z&apos; in &apos;java/lang/String&apos;)}
  0x00007fb91cef0c56: 8bb8dc000000        mov       edi,dword ptr [rax+0dch]
  0x00007fb91cef0c5c: 83c708              add       edi,8h
  0x00007fb91cef0c5f: 89b8dc000000        mov       dword ptr [rax+0dch],edi
  0x00007fb91cef0c65: 48b818265816b97f0000 mov       rax,7fb916582618h
                                                ;   {metadata({method} {0x00007fb916582618} &apos;equals&apos; &apos;(Ljava/lang/Object;)Z&apos; in &apos;java/lang/String&apos;)}
  0x00007fb91cef0c6f: 81e7f81f0000        and       edi,1ff8h
  0x00007fb91cef0c75: 83ff00              cmp       edi,0h
  0x00007fb91cef0c78: 0f84c8030000        je        7fb91cef1046h
                                                ;*aload_0
                                                ; - java.lang.String::equals@0 (line 977)

  0x00007fb91cef0c7e: 483bf2              cmp       rsi,rdx
  0x00007fb91cef0c81: 48b830be7616b97f0000 mov       rax,7fb91676be30h
                                                ;   {metadata(method data for {method} {0x00007fb916582618} &apos;equals&apos; &apos;(Ljava/lang/Object;)Z&apos; in &apos;java/lang/String&apos;)}
  0x00007fb91cef0c8b: 48bf0801000000000000 mov       rdi,108h
  0x00007fb91cef0c95: 0f850a000000        jne       7fb91cef0ca5h
  0x00007fb91cef0c9b: 48bf1801000000000000 mov       rdi,118h
  0x00007fb91cef0ca5: 488b1c38            mov       rbx,qword ptr [rax+rdi]
  0x00007fb91cef0ca9: 488d5b01            lea       rbx,[rbx+1h]
  0x00007fb91cef0cad: 48891c38            mov       qword ptr [rax+rdi],rbx
  0x00007fb91cef0cb1: 0f847e030000        je        7fb91cef1035h
                                                ;*if_acmpne
                                                ; - java.lang.String::equals@2 (line 977)

  0x00007fb91cef0cb7: 4883fa00            cmp       rdx,0h
  0x00007fb91cef0cbb: 7519                jne       7fb91cef0cd6h
  0x00007fb91cef0cbd: 48bb30be7616b97f0000 mov       rbx,7fb91676be30h
                                                ;   {metadata(method data for {method} {0x00007fb916582618} &apos;equals&apos; &apos;(Ljava/lang/Object;)Z&apos; in &apos;java/lang/String&apos;)}
  0x00007fb91cef0cc7: 818b2001000000010000 or        dword ptr [rbx+120h],100h
  0x00007fb91cef0cd1: e9c0000000          jmp       7fb91cef0d96h
  0x00007fb91cef0cd6: 48b9d01600c007000000 mov       rcx,7c00016d0h
                                                ;   {metadata(&apos;java/lang/String&apos;)}
  0x00007fb91cef0ce0: 8b7a08              mov       edi,dword ptr [rdx+8h]
  0x00007fb91cef0ce3: 48c1e703            shl       rdi,3h
  0x00007fb91cef0ce7: 483bcf              cmp       rcx,rdi
  0x00007fb91cef0cea: 0f858a000000        jne       7fb91cef0d7ah
  0x00007fb91cef0cf0: 48bb30be7616b97f0000 mov       rbx,7fb91676be30h
                                                ;   {metadata(method data for {method} {0x00007fb916582618} &apos;equals&apos; &apos;(Ljava/lang/Object;)Z&apos; in &apos;java/lang/String&apos;)}
  0x00007fb91cef0cfa: 8b4a08              mov       ecx,dword ptr [rdx+8h]
  0x00007fb91cef0cfd: 48c1e103            shl       rcx,3h
  0x00007fb91cef0d01: 483b8b30010000      cmp       rcx,qword ptr [rbx+130h]
  0x00007fb91cef0d08: 750d                jne       7fb91cef0d17h
  0x00007fb91cef0d0a: 4883833801000001    add       qword ptr [rbx+138h],1h
  0x00007fb91cef0d12: e984000000          jmp       7fb91cef0d9bh
  0x00007fb91cef0d17: 483b8b40010000      cmp       rcx,qword ptr [rbx+140h]
  0x00007fb91cef0d1e: 750d                jne       7fb91cef0d2dh
  0x00007fb91cef0d20: 4883834801000001    add       qword ptr [rbx+148h],1h
  0x00007fb91cef0d28: e96e000000          jmp       7fb91cef0d9bh
  0x00007fb91cef0d2d: 4881bb3001000000000000 cmp       qword ptr [rbx+130h],0h
  0x00007fb91cef0d38: 7517                jne       7fb91cef0d51h
  0x00007fb91cef0d3a: 48898b30010000      mov       qword ptr [rbx+130h],rcx
  0x00007fb91cef0d41: 48c7833801000001000000 mov       qword ptr [rbx+138h],1h
  0x00007fb91cef0d4c: e94a000000          jmp       7fb91cef0d9bh
  0x00007fb91cef0d51: 4881bb4001000000000000 cmp       qword ptr [rbx+140h],0h
  0x00007fb91cef0d5c: 7517                jne       7fb91cef0d75h
  0x00007fb91cef0d5e: 48898b40010000      mov       qword ptr [rbx+140h],rcx
  0x00007fb91cef0d65: 48c7834801000001000000 mov       qword ptr [rbx+148h],1h
  0x00007fb91cef0d70: e926000000          jmp       7fb91cef0d9bh
  0x00007fb91cef0d75: e921000000          jmp       7fb91cef0d9bh
  0x00007fb91cef0d7a: 48bb30be7616b97f0000 mov       rbx,7fb91676be30h
                                                ;   {metadata(method data for {method} {0x00007fb916582618} &apos;equals&apos; &apos;(Ljava/lang/Object;)Z&apos; in &apos;java/lang/String&apos;)}
  0x00007fb91cef0d84: 4883ab2801000001    sub       qword ptr [rbx+128h],1h
  0x00007fb91cef0d8c: e905000000          jmp       7fb91cef0d96h
  0x00007fb91cef0d91: e905000000          jmp       7fb91cef0d9bh
  0x00007fb91cef0d96: 4833c0              xor       rax,rax
  0x00007fb91cef0d99: eb0a                jmp       7fb91cef0da5h
  0x00007fb91cef0d9b: 48b80100000000000000 mov       rax,1h
                                                ;*instanceof
                                                ; - java.lang.String::equals@8 (line 980)

  0x00007fb91cef0da5: 83f800              cmp       eax,0h
  0x00007fb91cef0da8: 48b830be7616b97f0000 mov       rax,7fb91676be30h
                                                ;   {metadata(method data for {method} {0x00007fb916582618} &apos;equals&apos; &apos;(Ljava/lang/Object;)Z&apos; in &apos;java/lang/String&apos;)}
  0x00007fb91cef0db2: 48bf5801000000000000 mov       rdi,158h
  0x00007fb91cef0dbc: 0f840a000000        je        7fb91cef0dcch
  0x00007fb91cef0dc2: 48bf6801000000000000 mov       rdi,168h
  0x00007fb91cef0dcc: 488b1c38            mov       rbx,qword ptr [rax+rdi]
  0x00007fb91cef0dd0: 488d5b01            lea       rbx,[rbx+1h]
  0x00007fb91cef0dd4: 48891c38            mov       qword ptr [rax+rdi],rbx
  0x00007fb91cef0dd8: 0f8446020000        je        7fb91cef1024h
                                                ;*ifeq
                                                ; - java.lang.String::equals@11 (line 980)

  0x00007fb91cef0dde: 4883fa00            cmp       rdx,0h
  0x00007fb91cef0de2: 7519                jne       7fb91cef0dfdh
  0x00007fb91cef0de4: 48bb30be7616b97f0000 mov       rbx,7fb91676be30h
                                                ;   {metadata(method data for {method} {0x00007fb916582618} &apos;equals&apos; &apos;(Ljava/lang/Object;)Z&apos; in &apos;java/lang/String&apos;)}
  0x00007fb91cef0dee: 818b7001000000010000 or        dword ptr [rbx+170h],100h
  0x00007fb91cef0df8: e9c0000000          jmp       7fb91cef0ebdh
  0x00007fb91cef0dfd: 48b8d01600c007000000 mov       rax,7c00016d0h
                                                ;   {metadata(&apos;java/lang/String&apos;)}
  0x00007fb91cef0e07: 8b7a08              mov       edi,dword ptr [rdx+8h]
  0x00007fb91cef0e0a: 48c1e703            shl       rdi,3h
  0x00007fb91cef0e0e: 483bc7              cmp       rax,rdi
  0x00007fb91cef0e11: 0f858a000000        jne       7fb91cef0ea1h
  0x00007fb91cef0e17: 48bb30be7616b97f0000 mov       rbx,7fb91676be30h
                                                ;   {metadata(method data for {method} {0x00007fb916582618} &apos;equals&apos; &apos;(Ljava/lang/Object;)Z&apos; in &apos;java/lang/String&apos;)}
  0x00007fb91cef0e21: 8b4208              mov       eax,dword ptr [rdx+8h]
  0x00007fb91cef0e24: 48c1e003            shl       rax,3h
  0x00007fb91cef0e28: 483b8380010000      cmp       rax,qword ptr [rbx+180h]
  0x00007fb91cef0e2f: 750d                jne       7fb91cef0e3eh
  0x00007fb91cef0e31: 4883838801000001    add       qword ptr [rbx+188h],1h
  0x00007fb91cef0e39: e97f000000          jmp       7fb91cef0ebdh
  0x00007fb91cef0e3e: 483b8390010000      cmp       rax,qword ptr [rbx+190h]
  0x00007fb91cef0e45: 750d                jne       7fb91cef0e54h
  0x00007fb91cef0e47: 4883839801000001    add       qword ptr [rbx+198h],1h
  0x00007fb91cef0e4f: e969000000          jmp       7fb91cef0ebdh
  0x00007fb91cef0e54: 4881bb8001000000000000 cmp       qword ptr [rbx+180h],0h
  0x00007fb91cef0e5f: 7517                jne       7fb91cef0e78h
  0x00007fb91cef0e61: 48898380010000      mov       qword ptr [rbx+180h],rax
  0x00007fb91cef0e68: 48c7838801000001000000 mov       qword ptr [rbx+188h],1h
  0x00007fb91cef0e73: e945000000          jmp       7fb91cef0ebdh
  0x00007fb91cef0e78: 4881bb9001000000000000 cmp       qword ptr [rbx+190h],0h
  0x00007fb91cef0e83: 7517                jne       7fb91cef0e9ch
  0x00007fb91cef0e85: 48898390010000      mov       qword ptr [rbx+190h],rax
  0x00007fb91cef0e8c: 48c7839801000001000000 mov       qword ptr [rbx+198h],1h
  0x00007fb91cef0e97: e921000000          jmp       7fb91cef0ebdh
  0x00007fb91cef0e9c: e91c000000          jmp       7fb91cef0ebdh
  0x00007fb91cef0ea1: 48bb30be7616b97f0000 mov       rbx,7fb91676be30h
                                                ;   {metadata(method data for {method} {0x00007fb916582618} &apos;equals&apos; &apos;(Ljava/lang/Object;)Z&apos; in &apos;java/lang/String&apos;)}
  0x00007fb91cef0eab: 4883ab7801000001    sub       qword ptr [rbx+178h],1h
  0x00007fb91cef0eb3: e9a5010000          jmp       7fb91cef105dh
  0x00007fb91cef0eb8: e900000000          jmp       7fb91cef0ebdh
  0x00007fb91cef0ebd: 488bc2              mov       rax,rdx
                                                ;*checkcast
                                                ; - java.lang.String::equals@15 (line 981)

  0x00007fb91cef0ec0: 8b760c              mov       esi,dword ptr [rsi+0ch]
  0x00007fb91cef0ec3: 48c1e603            shl       rsi,3h
                                                ;*getfield value
                                                ; - java.lang.String::equals@20 (line 982)

  0x00007fb91cef0ec7: 8b7e0c              mov       edi,dword ptr [rsi+0ch]
                                                ;*arraylength
                                                ; - java.lang.String::equals@23 (line 982)
                                                ; implicit exception: dispatches to 0x00007fb91cef1066
  0x00007fb91cef0eca: 8b400c              mov       eax,dword ptr [rax+0ch]
                                                ; implicit exception: dispatches to 0x00007fb91cef106b
  0x00007fb91cef0ecd: 48c1e003            shl       rax,3h
                                                ;*getfield value
                                                ; - java.lang.String::equals@27 (line 983)

  0x00007fb91cef0ed1: 8b580c              mov       ebx,dword ptr [rax+0ch]
                                                ;*arraylength
                                                ; - java.lang.String::equals@30 (line 983)
                                                ; implicit exception: dispatches to 0x00007fb91cef1070
  0x00007fb91cef0ed4: 3bfb                cmp       edi,ebx
  0x00007fb91cef0ed6: 48bb30be7616b97f0000 mov       rbx,7fb91676be30h
                                                ;   {metadata(method data for {method} {0x00007fb916582618} &apos;equals&apos; &apos;(Ljava/lang/Object;)Z&apos; in &apos;java/lang/String&apos;)}
  0x00007fb91cef0ee0: 48baa801000000000000 mov       rdx,1a8h
  0x00007fb91cef0eea: 0f850a000000        jne       7fb91cef0efah
  0x00007fb91cef0ef0: 48bab801000000000000 mov       rdx,1b8h
  0x00007fb91cef0efa: 488b0c13            mov       rcx,qword ptr [rbx+rdx]
  0x00007fb91cef0efe: 488d4901            lea       rcx,[rcx+1h]
  0x00007fb91cef0f02: 48890c13            mov       qword ptr [rbx+rdx],rcx
  0x00007fb91cef0f06: 0f8518010000        jne       7fb91cef1024h
                                                ;*if_icmpne
                                                ; - java.lang.String::equals@31 (line 983)

  0x00007fb91cef0f0c: bb00000000          mov       ebx,0h
  0x00007fb91cef0f11: e9a9000000          jmp       7fb91cef0fbfh
                                                ;*iload_3
                                                ; - java.lang.String::equals@49 (line 987)

  0x00007fb91cef0f16: 6690                nop
  0x00007fb91cef0f18: 4863fb              movsxd    rdi,ebx
  0x00007fb91cef0f1b: 3b5e0c              cmp       ebx,dword ptr [rsi+0ch]
  0x00007fb91cef0f1e: 0f8351010000        jnb       7fb91cef1075h
  0x00007fb91cef0f24: 0fb77c7e10          movzx     edi,word ptr [rsi+rdi*2+10h]
                                                ;*caload
                                                ; - java.lang.String::equals@60 (line 988)

  0x00007fb91cef0f29: 4863cb              movsxd    rcx,ebx
  0x00007fb91cef0f2c: 3b580c              cmp       ebx,dword ptr [rax+0ch]
  0x00007fb91cef0f2f: 0f8349010000        jnb       7fb91cef107eh
  0x00007fb91cef0f35: 0fb74c4810          movzx     ecx,word ptr [rax+rcx*2+10h]
                                                ;*caload
                                                ; - java.lang.String::equals@65 (line 988)

  0x00007fb91cef0f3a: 3bf9                cmp       edi,ecx
  0x00007fb91cef0f3c: 48bf30be7616b97f0000 mov       rdi,7fb91676be30h
                                                ;   {metadata(method data for {method} {0x00007fb916582618} &apos;equals&apos; &apos;(Ljava/lang/Object;)Z&apos; in &apos;java/lang/String&apos;)}
  0x00007fb91cef0f46: 48b9e801000000000000 mov       rcx,1e8h
  0x00007fb91cef0f50: 0f840a000000        je        7fb91cef0f60h
  0x00007fb91cef0f56: 48b9f801000000000000 mov       rcx,1f8h
  0x00007fb91cef0f60: 4c8b040f            mov       r8,qword ptr [rdi+rcx]
  0x00007fb91cef0f64: 4d8d4001            lea       r8,[r8+1h]
  0x00007fb91cef0f68: 4c89040f            mov       qword ptr [rdi+rcx],r8
  0x00007fb91cef0f6c: 0f8590000000        jne       7fb91cef1002h
                                                ;*if_icmpeq
                                                ; - java.lang.String::equals@66 (line 988)

  0x00007fb91cef0f72: ffc3                inc       ebx
  0x00007fb91cef0f74: 48bf30be7616b97f0000 mov       rdi,7fb91676be30h
                                                ;   {metadata(method data for {method} {0x00007fb916582618} &apos;equals&apos; &apos;(Ljava/lang/Object;)Z&apos; in &apos;java/lang/String&apos;)}
  0x00007fb91cef0f7e: 8b8fe0000000        mov       ecx,dword ptr [rdi+0e0h]
  0x00007fb91cef0f84: 83c108              add       ecx,8h
  0x00007fb91cef0f87: 898fe0000000        mov       dword ptr [rdi+0e0h],ecx
  0x00007fb91cef0f8d: 48bf18265816b97f0000 mov       rdi,7fb916582618h
                                                ;   {metadata({method} {0x00007fb916582618} &apos;equals&apos; &apos;(Ljava/lang/Object;)Z&apos; in &apos;java/lang/String&apos;)}
  0x00007fb91cef0f97: 81e1f8ff0000        and       ecx,0fff8h
  0x00007fb91cef0f9d: 83f900              cmp       ecx,0h
  0x00007fb91cef0fa0: 0f84e1000000        je        7fb91cef1087h
                                                ; OopMap{rax=Oop rsi=Oop off=902}
                                                ;*goto
                                                ; - java.lang.String::equals@74 (line 990)

  0x00007fb91cef0fa6: 850554213816        test      dword ptr [7fb933273100h],eax
                                                ;   {poll}
  0x00007fb91cef0fac: 48bf30be7616b97f0000 mov       rdi,7fb91676be30h
                                                ;   {metadata(method data for {method} {0x00007fb916582618} &apos;equals&apos; &apos;(Ljava/lang/Object;)Z&apos; in &apos;java/lang/String&apos;)}
  0x00007fb91cef0fb6: ff8708020000        inc       dword ptr [rdi+208h]
  0x00007fb91cef0fbc: 488bfa              mov       rdi,rdx
                                                ;*goto
                                                ; - java.lang.String::equals@74 (line 990)

  0x00007fb91cef0fbf: 488bd7              mov       rdx,rdi
  0x00007fb91cef0fc2: ffca                dec       edx
  0x00007fb91cef0fc4: 83ff00              cmp       edi,0h
  0x00007fb91cef0fc7: 48bf30be7616b97f0000 mov       rdi,7fb91676be30h
                                                ;   {metadata(method data for {method} {0x00007fb916582618} &apos;equals&apos; &apos;(Ljava/lang/Object;)Z&apos; in &apos;java/lang/String&apos;)}
  0x00007fb91cef0fd1: 48b9c801000000000000 mov       rcx,1c8h
  0x00007fb91cef0fdb: 0f840a000000        je        7fb91cef0febh
  0x00007fb91cef0fe1: 48b9d801000000000000 mov       rcx,1d8h
  0x00007fb91cef0feb: 4c8b040f            mov       r8,qword ptr [rdi+rcx]
  0x00007fb91cef0fef: 4d8d4001            lea       r8,[r8+1h]
  0x00007fb91cef0ff3: 4c89040f            mov       qword ptr [rdi+rcx],r8
  0x00007fb91cef0ff7: 0f8416000000        je        7fb91cef1013h
  0x00007fb91cef0ffd: e916ffffff          jmp       7fb91cef0f18h
                                                ;*ifeq
                                                ; - java.lang.String::equals@53 (line 987)

  0x00007fb91cef1002: b800000000          mov       eax,0h
  0x00007fb91cef1007: 4883c430            add       rsp,30h
  0x00007fb91cef100b: 5d                  pop       rbp
  0x00007fb91cef100c: 8505ee203816        test      dword ptr [7fb933273100h],eax
                                                ;   {poll_return}
  0x00007fb91cef1012: c3                  ret   ;*ireturn
                                                ; - java.lang.String::equals@70 (line 989)

  0x00007fb91cef1013: b801000000          mov       eax,1h
  0x00007fb91cef1018: 4883c430            add       rsp,30h
  0x00007fb91cef101c: 5d                  pop       rbp
  0x00007fb91cef101d: 8505dd203816        test      dword ptr [7fb933273100h],eax
                                                ;   {poll_return}
  0x00007fb91cef1023: c3                  ret   ;*ireturn
                                                ; - java.lang.String::equals@78 (line 992)

  0x00007fb91cef1024: b800000000          mov       eax,0h
  0x00007fb91cef1029: 4883c430            add       rsp,30h
  0x00007fb91cef102d: 5d                  pop       rbp
  0x00007fb91cef102e: 8505cc203816        test      dword ptr [7fb933273100h],eax
                                                ;   {poll_return}
  0x00007fb91cef1034: c3                  ret   ;*ireturn
                                                ; - java.lang.String::equals@80 (line 995)

  0x00007fb91cef1035: b801000000          mov       eax,1h
  0x00007fb91cef103a: 4883c430            add       rsp,30h
  0x00007fb91cef103e: 5d                  pop       rbp
  0x00007fb91cef103f: 8505bb203816        test      dword ptr [7fb933273100h],eax
                                                ;   {poll_return}
  0x00007fb91cef1045: c3                  ret
  0x00007fb91cef1046: 4889442408          mov       qword ptr [rsp+8h],rax
  0x00007fb91cef104b: 48c70424ffffffff    mov       qword ptr [rsp],0ffffffffffffffffh
  0x00007fb91cef1053: e848e2ffff          call      7fb91ceef2a0h
                                                ; OopMap{rsi=Oop rdx=Oop off=1080}
                                                ;*synchronization entry
                                                ; - java.lang.String::equals@-1 (line 977)
                                                ;   {runtime_call}
  0x00007fb91cef1058: e921fcffff          jmp       7fb91cef0c7eh
  0x00007fb91cef105d: 48891424            mov       qword ptr [rsp],rdx
  0x00007fb91cef1061: e8dad1ffff          call      7fb91ceee240h
                                                ; OopMap{rsi=Oop off=1094}
                                                ;*checkcast
                                                ; - java.lang.String::equals@15 (line 981)
                                                ;   {runtime_call}
  0x00007fb91cef1066: e855c2ffff          call      7fb91ceed2c0h
                                                ; OopMap{rax=Oop rsi=Oop off=1099}
                                                ;*arraylength
                                                ; - java.lang.String::equals@23 (line 982)
                                                ;   {runtime_call}
  0x00007fb91cef106b: e850c2ffff          call      7fb91ceed2c0h
                                                ; OopMap{rsi=Oop off=1104}
                                                ;*getfield value
                                                ; - java.lang.String::equals@27 (line 983)
                                                ;   {runtime_call}
  0x00007fb91cef1070: e84bc2ffff          call      7fb91ceed2c0h
                                                ; OopMap{rsi=Oop rax=Oop off=1109}
                                                ;*arraylength
                                                ; - java.lang.String::equals@30 (line 983)
                                                ;   {runtime_call}
  0x00007fb91cef1075: 48891c24            mov       qword ptr [rsp],rbx
  0x00007fb91cef1079: e882bbffff          call      7fb91ceecc00h
                                                ; OopMap{rax=Oop rsi=Oop off=1118}
                                                ;*caload
                                                ; - java.lang.String::equals@60 (line 988)
                                                ;   {runtime_call}
  0x00007fb91cef107e: 48891c24            mov       qword ptr [rsp],rbx
  0x00007fb91cef1082: e879bbffff          call      7fb91ceecc00h
                                                ; OopMap{rax=Oop rsi=Oop off=1127}
                                                ;*caload
                                                ; - java.lang.String::equals@65 (line 988)
                                                ;   {runtime_call}
  0x00007fb91cef1087: 48897c2408          mov       qword ptr [rsp+8h],rdi
  0x00007fb91cef108c: 48c704244a000000    mov       qword ptr [rsp],4ah
  0x00007fb91cef1094: e807e2ffff          call      7fb91ceef2a0h
                                                ; OopMap{rax=Oop rsi=Oop off=1145}
                                                ;*goto
                                                ; - java.lang.String::equals@74 (line 990)
                                                ;   {runtime_call}
  0x00007fb91cef1099: e908ffffff          jmp       7fb91cef0fa6h
  0x00007fb91cef109e: 90                  nop
  0x00007fb91cef109f: 90                  nop
  0x00007fb91cef10a0: 498b87a8020000      mov       rax,qword ptr [r15+2a8h]
  0x00007fb91cef10a7: 49ba0000000000000000 mov       r10,0h
  0x00007fb91cef10b1: 4d8997a8020000      mov       qword ptr [r15+2a8h],r10
  0x00007fb91cef10b8: 49ba0000000000000000 mov       r10,0h
  0x00007fb91cef10c2: 4d8997b0020000      mov       qword ptr [r15+2b0h],r10
  0x00007fb91cef10c9: 4883c430            add       rsp,30h
  0x00007fb91cef10cd: 5d                  pop       rbp
  0x00007fb91cef10ce: e9cd17f6ff          jmp       7fb91ce528a0h
                                                ;   {runtime_call}
  0x00007fb91cef10d3: f4                  hlt
  0x00007fb91cef10d4: f4                  hlt
  0x00007fb91cef10d5: f4                  hlt
  0x00007fb91cef10d6: f4                  hlt
  0x00007fb91cef10d7: f4                  hlt
  0x00007fb91cef10d8: f4                  hlt
  0x00007fb91cef10d9: f4                  hlt
  0x00007fb91cef10da: f4                  hlt
  0x00007fb91cef10db: f4                  hlt
  0x00007fb91cef10dc: f4                  hlt
  0x00007fb91cef10dd: f4                  hlt
  0x00007fb91cef10de: f4                  hlt
  0x00007fb91cef10df: f4                  hlt
[Exception Handler]
[Stub Code]
  0x00007fb91cef10e0: e8fb13f6ff          call      7fb91ce524e0h
                                                ;   {no_reloc}
  0x00007fb91cef10e5: 48896424d8          mov       qword ptr [rsp+0ffffffffffffffd8h],rsp
  0x00007fb91cef10ea: 4881ec80000000      sub       rsp,80h
  0x00007fb91cef10f1: 4889442478          mov       qword ptr [rsp+78h],rax
  0x00007fb91cef10f6: 48894c2470          mov       qword ptr [rsp+70h],rcx
  0x00007fb91cef10fb: 4889542468          mov       qword ptr [rsp+68h],rdx
  0x00007fb91cef1100: 48895c2460          mov       qword ptr [rsp+60h],rbx
  0x00007fb91cef1105: 48896c2450          mov       qword ptr [rsp+50h],rbp
  0x00007fb91cef110a: 4889742448          mov       qword ptr [rsp+48h],rsi
  0x00007fb91cef110f: 48897c2440          mov       qword ptr [rsp+40h],rdi
  0x00007fb91cef1114: 4c89442438          mov       qword ptr [rsp+38h],r8
  0x00007fb91cef1119: 4c894c2430          mov       qword ptr [rsp+30h],r9
  0x00007fb91cef111e: 4c89542428          mov       qword ptr [rsp+28h],r10
  0x00007fb91cef1123: 4c895c2420          mov       qword ptr [rsp+20h],r11
  0x00007fb91cef1128: 4c89642418          mov       qword ptr [rsp+18h],r12
  0x00007fb91cef112d: 4c896c2410          mov       qword ptr [rsp+10h],r13
  0x00007fb91cef1132: 4c89742408          mov       qword ptr [rsp+8h],r14
  0x00007fb91cef1137: 4c893c24            mov       qword ptr [rsp],r15
  0x00007fb91cef113b: 48bff6591532b97f0000 mov       rdi,7fb9321559f6h
                                                ;   {external_word}
  0x00007fb91cef1145: 48bee510ef1cb97f0000 mov       rsi,7fb91cef10e5h
                                                ;   {internal_word}
  0x00007fb91cef114f: 488bd4              mov       rdx,rsp
  0x00007fb91cef1152: 4883e4f0            and       rsp,0fffffffffffffff0h
  0x00007fb91cef1156: e80581f614          call      7fb931e59260h
                                                ;   {runtime_call}
  0x00007fb91cef115b: f4                  hlt
[Deopt Handler Code]
  0x00007fb91cef115c: 49ba5c11ef1cb97f0000 mov       r10,7fb91cef115ch
                                                ;   {section_word}
  0x00007fb91cef1166: 4152                push      r10
  0x00007fb91cef1168: e993a3f3ff          jmp       7fb91ce2b500h
                                                ;   {runtime_call}
  0x00007fb91cef116d: f4                  hlt
  0x00007fb91cef116e: f4                  hlt
  0x00007fb91cef116f: f4                  hlt
<nmethod compile_id='9' compiler='C1' level='3' entry='0x00007fb91cef0c20' size='2504' address='0x00007fb91cef0a90' relocation_offset='296' insts_offset='400' stub_offset='1616' scopes_data_offset='1768' scopes_pcs_offset='1984' dependencies_offset='2464' nul_chk_table_offset='2472' method='java/lang/String equals (Ljava/lang/Object;)Z' bytes='81' count='1030' backedge_count='3016' iicount='1030' stamp='0.264'/>
Decoding compiled method 0x00007fb91cef1490:
Code:
Argument 0 is unknown.RIP: 0x7fb91cef1600 Code size: 0x00000150
[Entry Point]
[Constants]
  # {method} {0x00007fb91657e480} &apos;&lt;init&gt;&apos; &apos;()V&apos; in &apos;java/lang/Object&apos;
  #           [sp+0x40]  (sp of caller)
  0x00007fb91cef1600: 448b5608            mov       r10d,dword ptr [rsi+8h]
  0x00007fb91cef1604: 49c1e203            shl       r10,3h
  0x00007fb91cef1608: 4c3bd0              cmp       r10,rax
  0x00007fb91cef160b: 0f854f88f3ff        jne       7fb91ce29e60h
                                                ;   {runtime_call}
  0x00007fb91cef1611: 6666660f1f840000000000 nop       word ptr [rax+rax+0h]
  0x00007fb91cef161c: 66666690            nop
[Verified Entry Point]
  0x00007fb91cef1620: 89842400c0feff      mov       dword ptr [rsp+0fffffffffffec000h],eax
  0x00007fb91cef1627: 55                  push      rbp
  0x00007fb91cef1628: 4883ec30            sub       rsp,30h
  0x00007fb91cef162c: 48bf90546f16b97f0000 mov       rdi,7fb9166f5490h
                                                ;   {metadata(method data for {method} {0x00007fb91657e480} &apos;&lt;init&gt;&apos; &apos;()V&apos; in &apos;java/lang/Object&apos;)}
  0x00007fb91cef1636: 8b9fdc000000        mov       ebx,dword ptr [rdi+0dch]
  0x00007fb91cef163c: 83c308              add       ebx,8h
  0x00007fb91cef163f: 899fdc000000        mov       dword ptr [rdi+0dch],ebx
  0x00007fb91cef1645: 48bf80e45716b97f0000 mov       rdi,7fb91657e480h
                                                ;   {metadata({method} {0x00007fb91657e480} &apos;&lt;init&gt;&apos; &apos;()V&apos; in &apos;java/lang/Object&apos;)}
  0x00007fb91cef164f: 81e3f81f0000        and       ebx,1ff8h
  0x00007fb91cef1655: 83fb00              cmp       ebx,0h
  0x00007fb91cef1658: 0f8419000000        je        7fb91cef1677h
  0x00007fb91cef165e: 488bfe              mov       rdi,rsi
                                                ;*return
                                                ; - java.lang.Object::&lt;init&gt;@0 (line 37)

  0x00007fb91cef1661: 4889742420          mov       qword ptr [rsp+20h],rsi
  0x00007fb91cef1666: e875beffff          call      7fb91ceed4e0h
                                                ; OopMap{[32]=Oop off=107}
                                                ;*return
                                                ; - java.lang.Object::&lt;init&gt;@0 (line 37)
                                                ;   {runtime_call}
  0x00007fb91cef166b: 4883c430            add       rsp,30h
  0x00007fb91cef166f: 5d                  pop       rbp
  0x00007fb91cef1670: 85058a1a3816        test      dword ptr [7fb933273100h],eax
                                                ;   {poll_return}
  0x00007fb91cef1676: c3                  ret
  0x00007fb91cef1677: 48897c2408          mov       qword ptr [rsp+8h],rdi
  0x00007fb91cef167c: 48c70424ffffffff    mov       qword ptr [rsp],0ffffffffffffffffh
  0x00007fb91cef1684: e817dcffff          call      7fb91ceef2a0h
                                                ; OopMap{rsi=Oop off=137}
                                                ;*synchronization entry
                                                ; - java.lang.Object::&lt;init&gt;@-1 (line 37)
                                                ;   {runtime_call}
  0x00007fb91cef1689: ebd3                jmp       7fb91cef165eh
  0x00007fb91cef168b: 90                  nop
  0x00007fb91cef168c: 90                  nop
  0x00007fb91cef168d: 498b87a8020000      mov       rax,qword ptr [r15+2a8h]
  0x00007fb91cef1694: 49ba0000000000000000 mov       r10,0h
  0x00007fb91cef169e: 4d8997a8020000      mov       qword ptr [r15+2a8h],r10
  0x00007fb91cef16a5: 49ba0000000000000000 mov       r10,0h
  0x00007fb91cef16af: 4d8997b0020000      mov       qword ptr [r15+2b0h],r10
  0x00007fb91cef16b6: 4883c430            add       rsp,30h
  0x00007fb91cef16ba: 5d                  pop       rbp
  0x00007fb91cef16bb: e9e011f6ff          jmp       7fb91ce528a0h
                                                ;   {runtime_call}
[Exception Handler]
[Stub Code]
  0x00007fb91cef16c0: e81b0ef6ff          call      7fb91ce524e0h
                                                ;   {no_reloc}
  0x00007fb91cef16c5: 48896424d8          mov       qword ptr [rsp+0ffffffffffffffd8h],rsp
  0x00007fb91cef16ca: 4881ec80000000      sub       rsp,80h
  0x00007fb91cef16d1: 4889442478          mov       qword ptr [rsp+78h],rax
  0x00007fb91cef16d6: 48894c2470          mov       qword ptr [rsp+70h],rcx
  0x00007fb91cef16db: 4889542468          mov       qword ptr [rsp+68h],rdx
  0x00007fb91cef16e0: 48895c2460          mov       qword ptr [rsp+60h],rbx
  0x00007fb91cef16e5: 48896c2450          mov       qword ptr [rsp+50h],rbp
  0x00007fb91cef16ea: 4889742448          mov       qword ptr [rsp+48h],rsi
  0x00007fb91cef16ef: 48897c2440          mov       qword ptr [rsp+40h],rdi
  0x00007fb91cef16f4: 4c89442438          mov       qword ptr [rsp+38h],r8
  0x00007fb91cef16f9: 4c894c2430          mov       qword ptr [rsp+30h],r9
  0x00007fb91cef16fe: 4c89542428          mov       qword ptr [rsp+28h],r10
  0x00007fb91cef1703: 4c895c2420          mov       qword ptr [rsp+20h],r11
  0x00007fb91cef1708: 4c89642418          mov       qword ptr [rsp+18h],r12
  0x00007fb91cef170d: 4c896c2410          mov       qword ptr [rsp+10h],r13
  0x00007fb91cef1712: 4c89742408          mov       qword ptr [rsp+8h],r14
  0x00007fb91cef1717: 4c893c24            mov       qword ptr [rsp],r15
  0x00007fb91cef171b: 48bff6591532b97f0000 mov       rdi,7fb9321559f6h
                                                ;   {external_word}
  0x00007fb91cef1725: 48bec516ef1cb97f0000 mov       rsi,7fb91cef16c5h
                                                ;   {internal_word}
  0x00007fb91cef172f: 488bd4              mov       rdx,rsp
  0x00007fb91cef1732: 4883e4f0            and       rsp,0fffffffffffffff0h
  0x00007fb91cef1736: e8257bf614          call      7fb931e59260h
                                                ;   {runtime_call}
  0x00007fb91cef173b: f4                  hlt
[Deopt Handler Code]
  0x00007fb91cef173c: 49ba3c17ef1cb97f0000 mov       r10,7fb91cef173ch
                                                ;   {section_word}
  0x00007fb91cef1746: 4152                push      r10
  0x00007fb91cef1748: e9b39df3ff          jmp       7fb91ce2b500h
                                                ;   {runtime_call}
  0x00007fb91cef174d: f4                  hlt
  0x00007fb91cef174e: f4                  hlt
  0x00007fb91cef174f: f4                  hlt
<nmethod compile_id='13' compiler='C1' level='3' entry='0x00007fb91cef1600' size='832' address='0x00007fb91cef1490' relocation_offset='296' insts_offset='368' stub_offset='560' scopes_data_offset='712' scopes_pcs_offset='744' dependencies_offset='824' method='java/lang/Object &lt;init&gt; ()V' bytes='1' count='3990' iicount='3990' stamp='0.275'/>
<writer thread='140433403774720'/>
<task_queued compile_id='15' method='java/lang/Character toLowerCase (I)I' bytes='9' count='640' iicount='640' level='3' stamp='0.275' comment='tiered' hot_count='640'/>
<task_queued compile_id='16' method='java/lang/CharacterDataLatin1 toLowerCase (I)I' bytes='39' count='640' iicount='640' level='3' stamp='0.275' comment='tiered' hot_count='640'/>
<writer thread='140432885225216'/>
Decoding compiled method 0x00007fb91cef1810:
Code:
Argument 0 is unknown.RIP: 0x7fb91cef1980 Code size: 0x00000170
[Entry Point]
[Constants]
  # {method} {0x00007fb916581c60} &apos;length&apos; &apos;()I&apos; in &apos;java/lang/String&apos;
  #           [sp+0x40]  (sp of caller)
  0x00007fb91cef1980: 448b5608            mov       r10d,dword ptr [rsi+8h]
  0x00007fb91cef1984: 49c1e203            shl       r10,3h
  0x00007fb91cef1988: 4c3bd0              cmp       r10,rax
  0x00007fb91cef198b: 0f85cf84f3ff        jne       7fb91ce29e60h
                                                ;   {runtime_call}
  0x00007fb91cef1991: 6666660f1f840000000000 nop       word ptr [rax+rax+0h]
  0x00007fb91cef199c: 66666690            nop
[Verified Entry Point]
  0x00007fb91cef19a0: 89842400c0feff      mov       dword ptr [rsp+0fffffffffffec000h],eax
  0x00007fb91cef19a7: 55                  push      rbp
  0x00007fb91cef19a8: 4883ec30            sub       rsp,30h
  0x00007fb91cef19ac: 48b800237516b97f0000 mov       rax,7fb916752300h
                                                ;   {metadata(method data for {method} {0x00007fb916581c60} &apos;length&apos; &apos;()I&apos; in &apos;java/lang/String&apos;)}
  0x00007fb91cef19b6: 8bb8dc000000        mov       edi,dword ptr [rax+0dch]
  0x00007fb91cef19bc: 83c708              add       edi,8h
  0x00007fb91cef19bf: 89b8dc000000        mov       dword ptr [rax+0dch],edi
  0x00007fb91cef19c5: 48b8601c5816b97f0000 mov       rax,7fb916581c60h
                                                ;   {metadata({method} {0x00007fb916581c60} &apos;length&apos; &apos;()I&apos; in &apos;java/lang/String&apos;)}
  0x00007fb91cef19cf: 81e7f81f0000        and       edi,1ff8h
  0x00007fb91cef19d5: 83ff00              cmp       edi,0h
  0x00007fb91cef19d8: 0f8416000000        je        7fb91cef19f4h
                                                ;*aload_0
                                                ; - java.lang.String::length@0 (line 623)

  0x00007fb91cef19de: 8b460c              mov       eax,dword ptr [rsi+0ch]
  0x00007fb91cef19e1: 48c1e003            shl       rax,3h
                                                ;*getfield value
                                                ; - java.lang.String::length@1 (line 623)

  0x00007fb91cef19e5: 8b400c              mov       eax,dword ptr [rax+0ch]
                                                ;*arraylength
                                                ; - java.lang.String::length@4 (line 623)
                                                ; implicit exception: dispatches to 0x00007fb91cef1a08
  0x00007fb91cef19e8: 4883c430            add       rsp,30h
  0x00007fb91cef19ec: 5d                  pop       rbp
  0x00007fb91cef19ed: 85050d173816        test      dword ptr [7fb933273100h],eax
                                                ;   {poll_return}
  0x00007fb91cef19f3: c3                  ret
  0x00007fb91cef19f4: 4889442408          mov       qword ptr [rsp+8h],rax
  0x00007fb91cef19f9: 48c70424ffffffff    mov       qword ptr [rsp],0ffffffffffffffffh
  0x00007fb91cef1a01: e89ad8ffff          call      7fb91ceef2a0h
                                                ; OopMap{rsi=Oop off=134}
                                                ;*synchronization entry
                                                ; - java.lang.String::length@-1 (line 623)
                                                ;   {runtime_call}
  0x00007fb91cef1a06: ebd6                jmp       7fb91cef19deh
  0x00007fb91cef1a08: e8b3b8ffff          call      7fb91ceed2c0h
                                                ; OopMap{off=141}
                                                ;*arraylength
                                                ; - java.lang.String::length@4 (line 623)
                                                ;   {runtime_call}
  0x00007fb91cef1a0d: 90                  nop
  0x00007fb91cef1a0e: 90                  nop
  0x00007fb91cef1a0f: 498b87a8020000      mov       rax,qword ptr [r15+2a8h]
  0x00007fb91cef1a16: 49ba0000000000000000 mov       r10,0h
  0x00007fb91cef1a20: 4d8997a8020000      mov       qword ptr [r15+2a8h],r10
  0x00007fb91cef1a27: 49ba0000000000000000 mov       r10,0h
  0x00007fb91cef1a31: 4d8997b0020000      mov       qword ptr [r15+2b0h],r10
  0x00007fb91cef1a38: 4883c430            add       rsp,30h
  0x00007fb91cef1a3c: 5d                  pop       rbp
  0x00007fb91cef1a3d: e95e0ef6ff          jmp       7fb91ce528a0h
                                                ;   {runtime_call}
  0x00007fb91cef1a42: f4                  hlt
  0x00007fb91cef1a43: f4                  hlt
  0x00007fb91cef1a44: f4                  hlt
  0x00007fb91cef1a45: f4                  hlt
  0x00007fb91cef1a46: f4                  hlt
  0x00007fb91cef1a47: f4                  hlt
  0x00007fb91cef1a48: f4                  hlt
  0x00007fb91cef1a49: f4                  hlt
  0x00007fb91cef1a4a: f4                  hlt
  0x00007fb91cef1a4b: f4                  hlt
  0x00007fb91cef1a4c: f4                  hlt
  0x00007fb91cef1a4d: f4                  hlt
  0x00007fb91cef1a4e: f4                  hlt
  0x00007fb91cef1a4f: f4                  hlt
  0x00007fb91cef1a50: f4                  hlt
  0x00007fb91cef1a51: f4                  hlt
  0x00007fb91cef1a52: f4                  hlt
  0x00007fb91cef1a53: f4                  hlt
  0x00007fb91cef1a54: f4                  hlt
  0x00007fb91cef1a55: f4                  hlt
  0x00007fb91cef1a56: f4                  hlt
  0x00007fb91cef1a57: f4                  hlt
  0x00007fb91cef1a58: f4                  hlt
  0x00007fb91cef1a59: f4                  hlt
  0x00007fb91cef1a5a: f4                  hlt
  0x00007fb91cef1a5b: f4                  hlt
  0x00007fb91cef1a5c: f4                  hlt
  0x00007fb91cef1a5d: f4                  hlt
  0x00007fb91cef1a5e: f4                  hlt
  0x00007fb91cef1a5f: f4                  hlt
[Exception Handler]
[Stub Code]
  0x00007fb91cef1a60: e87b0af6ff          call      7fb91ce524e0h
                                                ;   {no_reloc}
  0x00007fb91cef1a65: 48896424d8          mov       qword ptr [rsp+0ffffffffffffffd8h],rsp
  0x00007fb91cef1a6a: 4881ec80000000      sub       rsp,80h
  0x00007fb91cef1a71: 4889442478          mov       qword ptr [rsp+78h],rax
  0x00007fb91cef1a76: 48894c2470          mov       qword ptr [rsp+70h],rcx
  0x00007fb91cef1a7b: 4889542468          mov       qword ptr [rsp+68h],rdx
  0x00007fb91cef1a80: 48895c2460          mov       qword ptr [rsp+60h],rbx
  0x00007fb91cef1a85: 48896c2450          mov       qword ptr [rsp+50h],rbp
  0x00007fb91cef1a8a: 4889742448          mov       qword ptr [rsp+48h],rsi
  0x00007fb91cef1a8f: 48897c2440          mov       qword ptr [rsp+40h],rdi
  0x00007fb91cef1a94: 4c89442438          mov       qword ptr [rsp+38h],r8
  0x00007fb91cef1a99: 4c894c2430          mov       qword ptr [rsp+30h],r9
  0x00007fb91cef1a9e: 4c89542428          mov       qword ptr [rsp+28h],r10
  0x00007fb91cef1aa3: 4c895c2420          mov       qword ptr [rsp+20h],r11
  0x00007fb91cef1aa8: 4c89642418          mov       qword ptr [rsp+18h],r12
  0x00007fb91cef1aad: 4c896c2410          mov       qword ptr [rsp+10h],r13
  0x00007fb91cef1ab2: 4c89742408          mov       qword ptr [rsp+8h],r14
  0x00007fb91cef1ab7: 4c893c24            mov       qword ptr [rsp],r15
  0x00007fb91cef1abb: 48bff6591532b97f0000 mov       rdi,7fb9321559f6h
                                                ;   {external_word}
  0x00007fb91cef1ac5: 48be651aef1cb97f0000 mov       rsi,7fb91cef1a65h
                                                ;   {internal_word}
  0x00007fb91cef1acf: 488bd4              mov       rdx,rsp
  0x00007fb91cef1ad2: 4883e4f0            and       rsp,0fffffffffffffff0h
  0x00007fb91cef1ad6: e88577f614          call      7fb931e59260h
                                                ;   {runtime_call}
  0x00007fb91cef1adb: f4                  hlt
[Deopt Handler Code]
  0x00007fb91cef1adc: 49badc1aef1cb97f0000 mov       r10,7fb91cef1adch
                                                ;   {section_word}
  0x00007fb91cef1ae6: 4152                push      r10
  0x00007fb91cef1ae8: e9139af3ff          jmp       7fb91ce2b500h
                                                ;   {runtime_call}
  0x00007fb91cef1aed: f4                  hlt
  0x00007fb91cef1aee: f4                  hlt
  0x00007fb91cef1aef: f4                  hlt
<nmethod compile_id='14' compiler='C1' level='3' entry='0x00007fb91cef1980' size='920' address='0x00007fb91cef1810' relocation_offset='296' insts_offset='368' stub_offset='592' scopes_data_offset='744' scopes_pcs_offset='784' dependencies_offset='896' nul_chk_table_offset='904' method='java/lang/String length ()I' bytes='6' count='2234' iicount='2234' stamp='0.287'/>
<writer thread='140433403774720'/>
<task_queued compile_id='17' method='sun/nio/cs/UTF_8$Encoder encode ([CII[B)I' bytes='359' count='403' backedge_count='22528' iicount='403' level='3' stamp='0.287' comment='tiered' hot_count='403'/>
<task_queued compile_id='18' method='java/lang/String startsWith (Ljava/lang/String;I)Z' bytes='72' count='768' backedge_count='1742' iicount='768' level='3' stamp='0.289' comment='tiered' hot_count='768'/>
<task_queued compile_id='19' method='java/lang/Math min (II)I' bytes='11' count='2688' iicount='2688' level='3' stamp='0.289' comment='tiered' hot_count='2688'/>
<writer thread='140432885225216'/>
Decoding compiled method 0x00007fb91cef21d0:
Code:
Argument 0 is unknown.RIP: 0x7fb91cef23c0 Code size: 0x00000b38
[Entry Point]
[Constants]
  # {method} {0x00007fb9166cdd90} &apos;encode&apos; &apos;([CII[B)I&apos; in &apos;sun/nio/cs/UTF_8$Encoder&apos;
  # this:     rsi:rsi   = &apos;sun/nio/cs/UTF_8$Encoder&apos;
  # parm0:    rdx:rdx   = &apos;[C&apos;
  # parm1:    rcx       = int
  # parm2:    r8        = int
  # parm3:    r9:r9     = &apos;[B&apos;
  #           [sp+0x90]  (sp of caller)
  0x00007fb91cef23c0: 448b5608            mov       r10d,dword ptr [rsi+8h]
  0x00007fb91cef23c4: 49c1e203            shl       r10,3h
  0x00007fb91cef23c8: 4c3bd0              cmp       r10,rax
  0x00007fb91cef23cb: 0f858f7af3ff        jne       7fb91ce29e60h
                                                ;   {runtime_call}
  0x00007fb91cef23d1: 6666660f1f840000000000 nop       word ptr [rax+rax+0h]
  0x00007fb91cef23dc: 66666690            nop
[Verified Entry Point]
  0x00007fb91cef23e0: 89842400c0feff      mov       dword ptr [rsp+0fffffffffffec000h],eax
  0x00007fb91cef23e7: 55                  push      rbp
  0x00007fb91cef23e8: 4881ec80000000      sub       rsp,80h
  0x00007fb91cef23ef: 4889742448          mov       qword ptr [rsp+48h],rsi
  0x00007fb91cef23f4: 4889542460          mov       qword ptr [rsp+60h],rdx
  0x00007fb91cef23f9: 4c894c2470          mov       qword ptr [rsp+70h],r9
  0x00007fb91cef23fe: 48b818807916b97f0000 mov       rax,7fb916798018h
                                                ;   {metadata(method data for {method} {0x00007fb9166cdd90} &apos;encode&apos; &apos;([CII[B)I&apos; in &apos;sun/nio/cs/UTF_8$Encoder&apos;)}
  0x00007fb91cef2408: 8bb8dc000000        mov       edi,dword ptr [rax+0dch]
  0x00007fb91cef240e: 83c708              add       edi,8h
  0x00007fb91cef2411: 89b8dc000000        mov       dword ptr [rax+0dch],edi
  0x00007fb91cef2417: 48b890dd6c16b97f0000 mov       rax,7fb9166cdd90h
                                                ;   {metadata({method} {0x00007fb9166cdd90} &apos;encode&apos; &apos;([CII[B)I&apos; in &apos;sun/nio/cs/UTF_8$Encoder&apos;)}
  0x00007fb91cef2421: 81e7f81f0000        and       edi,1ff8h
  0x00007fb91cef2427: 83ff00              cmp       edi,0h
  0x00007fb91cef242a: 0f848d080000        je        7fb91cef2cbdh
                                                ;*iload_2
                                                ; - sun.nio.cs.UTF_8$Encoder::encode@0 (line 704)

  0x00007fb91cef2430: 488bf9              mov       rdi,rcx
  0x00007fb91cef2433: 4103f8              add       edi,r8d
  0x00007fb91cef2436: 897c2468            mov       dword ptr [rsp+68h],edi
  0x00007fb91cef243a: 418b410c            mov       eax,dword ptr [r9+0ch]
                                                ;*arraylength
                                                ; - sun.nio.cs.UTF_8$Encoder::encode@13 (line 706)
                                                ; implicit exception: dispatches to 0x00007fb91cef2cd4
  0x00007fb91cef243e: 48bb18807916b97f0000 mov       rbx,7fb916798018h
                                                ;   {metadata(method data for {method} {0x00007fb9166cdd90} &apos;encode&apos; &apos;([CII[B)I&apos; in &apos;sun/nio/cs/UTF_8$Encoder&apos;)}
  0x00007fb91cef2448: 4883830801000001    add       qword ptr [rbx+108h],1h
  0x00007fb91cef2450: 48bbe87f7416b97f0000 mov       rbx,7fb916747fe8h
                                                ;   {metadata(method data for {method} {0x00007fb9166747d8} &apos;min&apos; &apos;(II)I&apos; in &apos;java/lang/Math&apos;)}
  0x00007fb91cef245a: 448b9bdc000000      mov       r11d,dword ptr [rbx+0dch]
  0x00007fb91cef2461: 4183c308            add       r11d,8h
  0x00007fb91cef2465: 44899bdc000000      mov       dword ptr [rbx+0dch],r11d
  0x00007fb91cef246c: 48bbd8476716b97f0000 mov       rbx,7fb9166747d8h
                                                ;   {metadata({method} {0x00007fb9166747d8} &apos;min&apos; &apos;(II)I&apos; in &apos;java/lang/Math&apos;)}
  0x00007fb91cef2476: 4181e3f8ff7f00      and       r11d,7ffff8h
  0x00007fb91cef247d: 4183fb00            cmp       r11d,0h
  0x00007fb91cef2481: 0f8452080000        je        7fb91cef2cd9h
  0x00007fb91cef2487: 443bc0              cmp       r8d,eax
  0x00007fb91cef248a: 48bbe87f7416b97f0000 mov       rbx,7fb916747fe8h
                                                ;   {metadata(method data for {method} {0x00007fb9166747d8} &apos;min&apos; &apos;(II)I&apos; in &apos;java/lang/Math&apos;)}
  0x00007fb91cef2494: 49bb0801000000000000 mov       r11,108h
  0x00007fb91cef249e: 0f8f0a000000        jnle      7fb91cef24aeh
  0x00007fb91cef24a4: 49bb1801000000000000 mov       r11,118h
  0x00007fb91cef24ae: 4e8b2c1b            mov       r13,qword ptr [rbx+r11]
  0x00007fb91cef24b2: 4d8d6d01            lea       r13,[r13+1h]
  0x00007fb91cef24b6: 4e892c1b            mov       qword ptr [rbx+r11],r13
  0x00007fb91cef24ba: 0f8f15000000        jnle      7fb91cef24d5h
                                                ;*if_icmpgt
                                                ; - java.lang.Math::min@2 (line 1336)
                                                ; - sun.nio.cs.UTF_8$Encoder::encode@14 (line 706)

  0x00007fb91cef24c0: 48b8e87f7416b97f0000 mov       rax,7fb916747fe8h
                                                ;   {metadata(method data for {method} {0x00007fb9166747d8} &apos;min&apos; &apos;(II)I&apos; in &apos;java/lang/Math&apos;)}
  0x00007fb91cef24ca: ff8028010000        inc       dword ptr [rax+128h]
  0x00007fb91cef24d0: e903000000          jmp       7fb91cef24d8h
                                                ;*goto
                                                ; - java.lang.Math::min@6 (line 1336)
                                                ; - sun.nio.cs.UTF_8$Encoder::encode@14 (line 706)

  0x00007fb91cef24d5: 4c8bc0              mov       r8,rax
                                                ;*ireturn
                                                ; - java.lang.Math::min@10 (line 1336)
                                                ; - sun.nio.cs.UTF_8$Encoder::encode@14 (line 706)

  0x00007fb91cef24d8: b800000000          mov       eax,0h
  0x00007fb91cef24dd: e9b8000000          jmp       7fb91cef259ah
                                                ;*iload
                                                ; - sun.nio.cs.UTF_8$Encoder::encode@20 (line 709)

  0x00007fb91cef24e2: 660f1f440000        nop       word ptr [rax+rax+0h]
  0x00007fb91cef24e8: 4863d9              movsxd    rbx,ecx
  0x00007fb91cef24eb: 3b4a0c              cmp       ecx,dword ptr [rdx+0ch]
                                                ; implicit exception: dispatches to 0x00007fb91cef2cf0
  0x00007fb91cef24ee: 0f8306080000        jnb       7fb91cef2cfah
  0x00007fb91cef24f4: 0fb75c5a10          movzx     ebx,word ptr [rdx+rbx*2+10h]
                                                ;*caload
                                                ; - sun.nio.cs.UTF_8$Encoder::encode@29 (line 709)

  0x00007fb91cef24f9: 81fb80000000        cmp       ebx,80h
  0x00007fb91cef24ff: 49bb18807916b97f0000 mov       r11,7fb916798018h
                                                ;   {metadata(method data for {method} {0x00007fb9166cdd90} &apos;encode&apos; &apos;([CII[B)I&apos; in &apos;sun/nio/cs/UTF_8$Encoder&apos;)}
  0x00007fb91cef2509: 49bd3801000000000000 mov       r13,138h
  0x00007fb91cef2513: 0f8d0a000000        jnl       7fb91cef2523h
  0x00007fb91cef2519: 49bd4801000000000000 mov       r13,148h
  0x00007fb91cef2523: 4f8b342b            mov       r14,qword ptr [r11+r13]
  0x00007fb91cef2527: 4d8d7601            lea       r14,[r14+1h]
  0x00007fb91cef252b: 4f89342b            mov       qword ptr [r11+r13],r14
  0x00007fb91cef252f: 0f8da3000000        jnl       7fb91cef25d8h
                                                ;*if_icmpge
                                                ; - sun.nio.cs.UTF_8$Encoder::encode@33 (line 709)

  0x00007fb91cef2535: 4c8bd8              mov       r11,rax
  0x00007fb91cef2538: 41ffc3              inc       r11d
  0x00007fb91cef253b: ffc1                inc       ecx
  0x00007fb91cef253d: 4c63e8              movsxd    r13,eax
  0x00007fb91cef2540: 413b410c            cmp       eax,dword ptr [r9+0ch]
  0x00007fb91cef2544: 0f83b9070000        jnb       7fb91cef2d03h
  0x00007fb91cef254a: 43885c2910          mov       byte ptr [r9+r13+10h],bl
                                                ;*bastore
                                                ; - sun.nio.cs.UTF_8$Encoder::encode@50 (line 710)

  0x00007fb91cef254f: 48b818807916b97f0000 mov       rax,7fb916798018h
                                                ;   {metadata(method data for {method} {0x00007fb9166cdd90} &apos;encode&apos; &apos;([CII[B)I&apos; in &apos;sun/nio/cs/UTF_8$Encoder&apos;)}
  0x00007fb91cef2559: 8b98e0000000        mov       ebx,dword ptr [rax+0e0h]
  0x00007fb91cef255f: 83c308              add       ebx,8h
  0x00007fb91cef2562: 8998e0000000        mov       dword ptr [rax+0e0h],ebx
  0x00007fb91cef2568: 48b890dd6c16b97f0000 mov       rax,7fb9166cdd90h
                                                ;   {metadata({method} {0x00007fb9166cdd90} &apos;encode&apos; &apos;([CII[B)I&apos; in &apos;sun/nio/cs/UTF_8$Encoder&apos;)}
  0x00007fb91cef2572: 81e3f8ff0000        and       ebx,0fff8h
  0x00007fb91cef2578: 83fb00              cmp       ebx,0h
  0x00007fb91cef257b: 0f848b070000        je        7fb91cef2d0ch
                                                ; OopMap{rsi=Oop [72]=Oop rdx=Oop [96]=Oop r9=Oop [112]=Oop off=449}
                                                ;*goto
                                                ; - sun.nio.cs.UTF_8$Encoder::encode@51 (line 710)

  0x00007fb91cef2581: 8505790b3816        test      dword ptr [7fb933273100h],eax
                                                ;   {poll}
  0x00007fb91cef2587: 48b818807916b97f0000 mov       rax,7fb916798018h
                                                ;   {metadata(method data for {method} {0x00007fb9166cdd90} &apos;encode&apos; &apos;([CII[B)I&apos; in &apos;sun/nio/cs/UTF_8$Encoder&apos;)}
  0x00007fb91cef2591: ff8058010000        inc       dword ptr [rax+158h]
  0x00007fb91cef2597: 498bc3              mov       rax,r11
                                                ;*goto
                                                ; - sun.nio.cs.UTF_8$Encoder::encode@51 (line 710)

  0x00007fb91cef259a: 413bc0              cmp       eax,r8d
  0x00007fb91cef259d: 48bb18807916b97f0000 mov       rbx,7fb916798018h
                                                ;   {metadata(method data for {method} {0x00007fb9166cdd90} &apos;encode&apos; &apos;([CII[B)I&apos; in &apos;sun/nio/cs/UTF_8$Encoder&apos;)}
  0x00007fb91cef25a7: 49bb1801000000000000 mov       r11,118h
  0x00007fb91cef25b1: 0f8d0a000000        jnl       7fb91cef25c1h
  0x00007fb91cef25b7: 49bb2801000000000000 mov       r11,128h
  0x00007fb91cef25c1: 4e8b2c1b            mov       r13,qword ptr [rbx+r11]
  0x00007fb91cef25c5: 4d8d6d01            lea       r13,[r13+1h]
  0x00007fb91cef25c9: 4e892c1b            mov       qword ptr [rbx+r11],r13
  0x00007fb91cef25cd: 0f8c15ffffff        jl        7fb91cef24e8h
                                                ;*if_icmpge
                                                ; - sun.nio.cs.UTF_8$Encoder::encode@24 (line 709)

  0x00007fb91cef25d3: 0f1f440000          nop       dword ptr [rax+rax+0h]
  0x00007fb91cef25d8: 3bcf                cmp       ecx,edi
  0x00007fb91cef25da: 48bb18807916b97f0000 mov       rbx,7fb916798018h
                                                ;   {metadata(method data for {method} {0x00007fb9166cdd90} &apos;encode&apos; &apos;([CII[B)I&apos; in &apos;sun/nio/cs/UTF_8$Encoder&apos;)}
  0x00007fb91cef25e4: 49b87001000000000000 mov       r8,170h
  0x00007fb91cef25ee: 0f8d0a000000        jnl       7fb91cef25feh
  0x00007fb91cef25f4: 49b88001000000000000 mov       r8,180h
  0x00007fb91cef25fe: 4e8b1c03            mov       r11,qword ptr [rbx+r8]
  0x00007fb91cef2602: 4d8d5b01            lea       r11,[r11+1h]
  0x00007fb91cef2606: 4e891c03            mov       qword ptr [rbx+r8],r11
  0x00007fb91cef260a: 0f8d98060000        jnl       7fb91cef2ca8h
                                                ;*if_icmpge
                                                ; - sun.nio.cs.UTF_8$Encoder::encode@57 (line 712)

  0x00007fb91cef2610: 488bd9              mov       rbx,rcx
  0x00007fb91cef2613: ffc3                inc       ebx
  0x00007fb91cef2615: 4c63c1              movsxd    r8,ecx
  0x00007fb91cef2618: 3b4a0c              cmp       ecx,dword ptr [rdx+0ch]
                                                ; implicit exception: dispatches to 0x00007fb91cef2d23
  0x00007fb91cef261b: 0f830c070000        jnb       7fb91cef2d2dh
  0x00007fb91cef2621: 420fb74c4210        movzx     ecx,word ptr [rdx+r8*2+10h]
                                                ;*caload
                                                ; - sun.nio.cs.UTF_8$Encoder::encode@65 (line 713)

  0x00007fb91cef2627: 81f980000000        cmp       ecx,80h
  0x00007fb91cef262d: 49b818807916b97f0000 mov       r8,7fb916798018h
                                                ;   {metadata(method data for {method} {0x00007fb9166cdd90} &apos;encode&apos; &apos;([CII[B)I&apos; in &apos;sun/nio/cs/UTF_8$Encoder&apos;)}
  0x00007fb91cef2637: 49bb9001000000000000 mov       r11,190h
  0x00007fb91cef2641: 0f8d0a000000        jnl       7fb91cef2651h
  0x00007fb91cef2647: 49bba001000000000000 mov       r11,1a0h
  0x00007fb91cef2651: 4f8b2c18            mov       r13,qword ptr [r8+r11]
  0x00007fb91cef2655: 4d8d6d01            lea       r13,[r13+1h]
  0x00007fb91cef2659: 4f892c18            mov       qword ptr [r8+r11],r13
  0x00007fb91cef265d: 0f8d2d000000        jnl       7fb91cef2690h
                                                ;*if_icmpge
                                                ; - sun.nio.cs.UTF_8$Encoder::encode@73 (line 714)

  0x00007fb91cef2663: 4c8bc0              mov       r8,rax
  0x00007fb91cef2666: 41ffc0              inc       r8d
  0x00007fb91cef2669: 4c63d8              movsxd    r11,eax
  0x00007fb91cef266c: 413b410c            cmp       eax,dword ptr [r9+0ch]
  0x00007fb91cef2670: 0f83c0060000        jnb       7fb91cef2d36h
  0x00007fb91cef2676: 43884c1910          mov       byte ptr [r9+r11+10h],cl
                                                ;*bastore
                                                ; - sun.nio.cs.UTF_8$Encoder::encode@86 (line 716)

  0x00007fb91cef267b: 48b818807916b97f0000 mov       rax,7fb916798018h
                                                ;   {metadata(method data for {method} {0x00007fb9166cdd90} &apos;encode&apos; &apos;([CII[B)I&apos; in &apos;sun/nio/cs/UTF_8$Encoder&apos;)}
  0x00007fb91cef2685: ff80b0010000        inc       dword ptr [rax+1b0h]
  0x00007fb91cef268b: e9a5050000          jmp       7fb91cef2c35h
                                                ;*goto
                                                ; - sun.nio.cs.UTF_8$Encoder::encode@87 (line 716)

  0x00007fb91cef2690: 81f900080000        cmp       ecx,800h
  0x00007fb91cef2696: 49b818807916b97f0000 mov       r8,7fb916798018h
                                                ;   {metadata(method data for {method} {0x00007fb9166cdd90} &apos;encode&apos; &apos;([CII[B)I&apos; in &apos;sun/nio/cs/UTF_8$Encoder&apos;)}
  0x00007fb91cef26a0: 49bbc801000000000000 mov       r11,1c8h
  0x00007fb91cef26aa: 0f8d0a000000        jnl       7fb91cef26bah
  0x00007fb91cef26b0: 49bbd801000000000000 mov       r11,1d8h
  0x00007fb91cef26ba: 4f8b2c18            mov       r13,qword ptr [r8+r11]
  0x00007fb91cef26be: 4d8d6d01            lea       r13,[r13+1h]
  0x00007fb91cef26c2: 4f892c18            mov       qword ptr [r8+r11],r13
  0x00007fb91cef26c6: 0f8d58000000        jnl       7fb91cef2724h
                                                ;*if_icmpge
                                                ; - sun.nio.cs.UTF_8$Encoder::encode@95 (line 717)

  0x00007fb91cef26cc: 4c8bc1              mov       r8,rcx
  0x00007fb91cef26cf: 41c1f806            sar       r8d,6h
  0x00007fb91cef26d3: 4181c8c0000000      or        r8d,0c0h
  0x00007fb91cef26da: 4c63d8              movsxd    r11,eax
  0x00007fb91cef26dd: 413b410c            cmp       eax,dword ptr [r9+0ch]
  0x00007fb91cef26e1: 0f8358060000        jnb       7fb91cef2d3fh
  0x00007fb91cef26e7: 4788441910          mov       byte ptr [r9+r11+10h],r8l
                                                ;*bastore
                                                ; - sun.nio.cs.UTF_8$Encoder::encode@115 (line 719)

  0x00007fb91cef26ec: ffc0                inc       eax
  0x00007fb91cef26ee: 4c8bc0              mov       r8,rax
  0x00007fb91cef26f1: 41ffc0              inc       r8d
  0x00007fb91cef26f4: 83e13f              and       ecx,3fh
  0x00007fb91cef26f7: 81c980000000        or        ecx,80h
  0x00007fb91cef26fd: 4c63d8              movsxd    r11,eax
  0x00007fb91cef2700: 413b410c            cmp       eax,dword ptr [r9+0ch]
  0x00007fb91cef2704: 0f833e060000        jnb       7fb91cef2d48h
  0x00007fb91cef270a: 43884c1910          mov       byte ptr [r9+r11+10h],cl
                                                ;*bastore
                                                ; - sun.nio.cs.UTF_8$Encoder::encode@133 (line 720)

  0x00007fb91cef270f: 48b818807916b97f0000 mov       rax,7fb916798018h
                                                ;   {metadata(method data for {method} {0x00007fb9166cdd90} &apos;encode&apos; &apos;([CII[B)I&apos; in &apos;sun/nio/cs/UTF_8$Encoder&apos;)}
  0x00007fb91cef2719: ff80e8010000        inc       dword ptr [rax+1e8h]
  0x00007fb91cef271f: e911050000          jmp       7fb91cef2c35h
                                                ;*goto
                                                ; - sun.nio.cs.UTF_8$Encoder::encode@134 (line 720)

  0x00007fb91cef2724: 49b818807916b97f0000 mov       r8,7fb916798018h
                                                ;   {metadata(method data for {method} {0x00007fb9166cdd90} &apos;encode&apos; &apos;([CII[B)I&apos; in &apos;sun/nio/cs/UTF_8$Encoder&apos;)}
  0x00007fb91cef272e: 4983800002000001    add       qword ptr [r8+200h],1h
  0x00007fb91cef2736: 49b8684a8116b97f0000 mov       r8,7fb916814a68h
                                                ;   {metadata(method data for {method} {0x00007fb9166182d8} &apos;isSurrogate&apos; &apos;(C)Z&apos; in &apos;java/lang/Character&apos;)}
  0x00007fb91cef2740: 458b98dc000000      mov       r11d,dword ptr [r8+0dch]
  0x00007fb91cef2747: 4183c308            add       r11d,8h
  0x00007fb91cef274b: 458998dc000000      mov       dword ptr [r8+0dch],r11d
  0x00007fb91cef2752: 49b8d8826116b97f0000 mov       r8,7fb9166182d8h
                                                ;   {metadata({method} {0x00007fb9166182d8} &apos;isSurrogate&apos; &apos;(C)Z&apos; in &apos;java/lang/Character&apos;)}
  0x00007fb91cef275c: 4181e3f8ff7f00      and       r11d,7ffff8h
  0x00007fb91cef2763: 4183fb00            cmp       r11d,0h
  0x00007fb91cef2767: 0f84e4050000        je        7fb91cef2d51h
  0x00007fb91cef276d: 81f900d80000        cmp       ecx,0d800h
  0x00007fb91cef2773: 49b8684a8116b97f0000 mov       r8,7fb916814a68h
                                                ;   {metadata(method data for {method} {0x00007fb9166182d8} &apos;isSurrogate&apos; &apos;(C)Z&apos; in &apos;java/lang/Character&apos;)}
  0x00007fb91cef277d: 49bb0801000000000000 mov       r11,108h
  0x00007fb91cef2787: 0f8c0a000000        jl        7fb91cef2797h
  0x00007fb91cef278d: 49bb1801000000000000 mov       r11,118h
  0x00007fb91cef2797: 4f8b2c18            mov       r13,qword ptr [r8+r11]
  0x00007fb91cef279b: 4d8d6d01            lea       r13,[r13+1h]
  0x00007fb91cef279f: 4f892c18            mov       qword ptr [r8+r11],r13
  0x00007fb91cef27a3: 0f8c3c000000        jl        7fb91cef27e5h
                                                ;*if_icmplt
                                                ; - java.lang.Character::isSurrogate@3 (line 4776)
                                                ; - sun.nio.cs.UTF_8$Encoder::encode@139 (line 721)

  0x00007fb91cef27a9: 81f900e00000        cmp       ecx,0e000h
  0x00007fb91cef27af: 49b8684a8116b97f0000 mov       r8,7fb916814a68h
                                                ;   {metadata(method data for {method} {0x00007fb9166182d8} &apos;isSurrogate&apos; &apos;(C)Z&apos; in &apos;java/lang/Character&apos;)}
  0x00007fb91cef27b9: 49bb2801000000000000 mov       r11,128h
  0x00007fb91cef27c3: 0f8d0a000000        jnl       7fb91cef27d3h
  0x00007fb91cef27c9: 49bb3801000000000000 mov       r11,138h
  0x00007fb91cef27d3: 4f8b2c18            mov       r13,qword ptr [r8+r11]
  0x00007fb91cef27d7: 4d8d6d01            lea       r13,[r13+1h]
  0x00007fb91cef27db: 4f892c18            mov       qword ptr [r8+r11],r13
  0x00007fb91cef27df: 0f8c0b000000        jl        7fb91cef27f0h
                                                ;*if_icmpge
                                                ; - java.lang.Character::isSurrogate@9 (line 4776)
                                                ; - sun.nio.cs.UTF_8$Encoder::encode@139 (line 721)

  0x00007fb91cef27e5: 41b800000000        mov       r8d,0h
  0x00007fb91cef27eb: e917000000          jmp       7fb91cef2807h
                                                ;*ireturn
                                                ; - java.lang.Character::isSurrogate@17 (line 4776)
                                                ; - sun.nio.cs.UTF_8$Encoder::encode@139 (line 721)

  0x00007fb91cef27f0: 49b8684a8116b97f0000 mov       r8,7fb916814a68h
                                                ;   {metadata(method data for {method} {0x00007fb9166182d8} &apos;isSurrogate&apos; &apos;(C)Z&apos; in &apos;java/lang/Character&apos;)}
  0x00007fb91cef27fa: 41ff8048010000      inc       dword ptr [r8+148h]
  0x00007fb91cef2801: 41b801000000        mov       r8d,1h
                                                ;*goto
                                                ; - java.lang.Character::isSurrogate@13 (line 4776)
                                                ; - sun.nio.cs.UTF_8$Encoder::encode@139 (line 721)

  0x00007fb91cef2807: 4183e001            and       r8d,1h
  0x00007fb91cef280b: 4183f800            cmp       r8d,0h
  0x00007fb91cef280f: 49b818807916b97f0000 mov       r8,7fb916798018h
                                                ;   {metadata(method data for {method} {0x00007fb9166cdd90} &apos;encode&apos; &apos;([CII[B)I&apos; in &apos;sun/nio/cs/UTF_8$Encoder&apos;)}
  0x00007fb91cef2819: 49bb1002000000000000 mov       r11,210h
  0x00007fb91cef2823: 0f840a000000        je        7fb91cef2833h
  0x00007fb91cef2829: 49bb2002000000000000 mov       r11,220h
  0x00007fb91cef2833: 4f8b2c18            mov       r13,qword ptr [r8+r11]
  0x00007fb91cef2837: 4d8d6d01            lea       r13,[r13+1h]
  0x00007fb91cef283b: 4f892c18            mov       qword ptr [r8+r11],r13
  0x00007fb91cef283f: 0f8484030000        je        7fb91cef2bc9h
                                                ;*ifeq
                                                ; - sun.nio.cs.UTF_8$Encoder::encode@142 (line 721)

  0x00007fb91cef2845: 448b4630            mov       r8d,dword ptr [rsi+30h]
  0x00007fb91cef2849: 49c1e003            shl       r8,3h
                                                ;*getfield sgp
                                                ; - sun.nio.cs.UTF_8$Encoder::encode@146 (line 722)

  0x00007fb91cef284d: 4983f800            cmp       r8,0h
  0x00007fb91cef2851: 49b818807916b97f0000 mov       r8,7fb916798018h
                                                ;   {metadata(method data for {method} {0x00007fb9166cdd90} &apos;encode&apos; &apos;([CII[B)I&apos; in &apos;sun/nio/cs/UTF_8$Encoder&apos;)}
  0x00007fb91cef285b: 49bb3002000000000000 mov       r11,230h
  0x00007fb91cef2865: 0f850a000000        jne       7fb91cef2875h
  0x00007fb91cef286b: 49bb4002000000000000 mov       r11,240h
  0x00007fb91cef2875: 4f8b2c18            mov       r13,qword ptr [r8+r11]
  0x00007fb91cef2879: 4d8d6d01            lea       r13,[r13+1h]
  0x00007fb91cef287d: 4f892c18            mov       qword ptr [r8+r11],r13
  0x00007fb91cef2881: 894c245c            mov       dword ptr [rsp+5ch],ecx
  0x00007fb91cef2885: 895c2458            mov       dword ptr [rsp+58h],ebx
  0x00007fb91cef2889: 8944246c            mov       dword ptr [rsp+6ch],eax
  0x00007fb91cef288d: 0f8563000000        jne       7fb91cef28f6h
                                                ;*ifnonnull
                                                ; - sun.nio.cs.UTF_8$Encoder::encode@149 (line 722)

  0x00007fb91cef2893: 0f1f440000          nop       dword ptr [rax+rax+0h]
  0x00007fb91cef2898: e9da040000          jmp       7fb91cef2d77h
                                                ;   {no_reloc}
  0x00007fb91cef289d: 0000                add       byte ptr [rax],al
  0x00007fb91cef289f: 0000                add       byte ptr [rax],al
  0x00007fb91cef28a1: 00e9                add       cl,ch
  0x00007fb91cef28a3: da0400              fiadd     dword ptr [rax+rax]
  0x00007fb91cef28a6: 00488b              add       byte ptr [rax+0ffffffffffffff8bh],cl
                                                ;*new  ; - sun.nio.cs.UTF_8$Encoder::encode@153 (line 723)

  0x00007fb91cef28a9: d049bd              ror       byte ptr [rcx+0ffffffffffffffbdh],1h
                                                ;   {metadata(method data for {method} {0x00007fb9166cdd90} &apos;encode&apos; &apos;([CII[B)I&apos; in &apos;sun/nio/cs/UTF_8$Encoder&apos;)}
  0x00007fb91cef28ac: 18807916b97f        sbb       byte ptr [rax+7fb91679h],al
  0x00007fb91cef28b2: 0000                add       byte ptr [rax],al
  0x00007fb91cef28b4: 4983855002000001    add       qword ptr [r13+250h],1h
  0x00007fb91cef28bc: 488bf0              mov       rsi,rax
                                                ;*invokespecial &lt;init&gt;
                                                ; - sun.nio.cs.UTF_8$Encoder::encode@157 (line 723)

  0x00007fb91cef28bf: 4889442450          mov       qword ptr [rsp+50h],rax
  0x00007fb91cef28c4: 90                  nop
  0x00007fb91cef28c5: 90                  nop
  0x00007fb91cef28c6: 90                  nop
  0x00007fb91cef28c7: e8d477f3ff          call      7fb91ce2a0a0h
                                                ; OopMap{[72]=Oop [80]=Oop [96]=Oop [112]=Oop off=1292}
                                                ;*invokespecial &lt;init&gt;
                                                ; - sun.nio.cs.UTF_8$Encoder::encode@157 (line 723)
                                                ;   {optimized virtual_call}
  0x00007fb91cef28cc: 488b742448          mov       rsi,qword ptr [rsp+48h]
  0x00007fb91cef28d1: 488b442450          mov       rax,qword ptr [rsp+50h]
  0x00007fb91cef28d6: 4c8bd0              mov       r10,rax
  0x00007fb91cef28d9: 49c1ea03            shr       r10,3h
  0x00007fb91cef28dd: 44895630            mov       dword ptr [rsi+30h],r10d
  0x00007fb91cef28e1: 488bd6              mov       rdx,rsi
  0x00007fb91cef28e4: 48c1ea09            shr       rdx,9h
  0x00007fb91cef28e8: 48b90030c218b97f0000 mov       rcx,7fb918c23000h
  0x00007fb91cef28f2: c6040a00            mov       byte ptr [rdx+rcx],0h
                                                ;*putfield sgp
                                                ; - sun.nio.cs.UTF_8$Encoder::encode@160 (line 723)

  0x00007fb91cef28f6: 8b7e30              mov       edi,dword ptr [rsi+30h]
  0x00007fb91cef28f9: 48c1e703            shl       rdi,3h
                                                ;*getfield sgp
                                                ; - sun.nio.cs.UTF_8$Encoder::encode@164 (line 724)

  0x00007fb91cef28fd: 483b07              cmp       rax,qword ptr [rdi]
                                                ; implicit exception: dispatches to 0x00007fb91cef2d8e
  0x00007fb91cef2900: 488bd7              mov       rdx,rdi
  0x00007fb91cef2903: 48b918807916b97f0000 mov       rcx,7fb916798018h
                                                ;   {metadata(method data for {method} {0x00007fb9166cdd90} &apos;encode&apos; &apos;([CII[B)I&apos; in &apos;sun/nio/cs/UTF_8$Encoder&apos;)}
  0x00007fb91cef290d: 8b5208              mov       edx,dword ptr [rdx+8h]
  0x00007fb91cef2910: 48c1e203            shl       rdx,3h
  0x00007fb91cef2914: 483b9168020000      cmp       rdx,qword ptr [rcx+268h]
  0x00007fb91cef291b: 750d                jne       7fb91cef292ah
  0x00007fb91cef291d: 4883817002000001    add       qword ptr [rcx+270h],1h
  0x00007fb91cef2925: e966000000          jmp       7fb91cef2990h
  0x00007fb91cef292a: 483b9178020000      cmp       rdx,qword ptr [rcx+278h]
  0x00007fb91cef2931: 750d                jne       7fb91cef2940h
  0x00007fb91cef2933: 4883818002000001    add       qword ptr [rcx+280h],1h
  0x00007fb91cef293b: e950000000          jmp       7fb91cef2990h
  0x00007fb91cef2940: 4881b96802000000000000 cmp       qword ptr [rcx+268h],0h
  0x00007fb91cef294b: 7517                jne       7fb91cef2964h
  0x00007fb91cef294d: 48899168020000      mov       qword ptr [rcx+268h],rdx
  0x00007fb91cef2954: 48c7817002000001000000 mov       qword ptr [rcx+270h],1h
  0x00007fb91cef295f: e92c000000          jmp       7fb91cef2990h
  0x00007fb91cef2964: 4881b97802000000000000 cmp       qword ptr [rcx+278h],0h
  0x00007fb91cef296f: 7517                jne       7fb91cef2988h
  0x00007fb91cef2971: 48899178020000      mov       qword ptr [rcx+278h],rdx
  0x00007fb91cef2978: 48c7818002000001000000 mov       qword ptr [rcx+280h],1h
  0x00007fb91cef2983: e908000000          jmp       7fb91cef2990h
  0x00007fb91cef2988: 4883816002000001    add       qword ptr [rcx+260h],1h
  0x00007fb91cef2990: 8b5c2458            mov       ebx,dword ptr [rsp+58h]
  0x00007fb91cef2994: ffcb                dec       ebx
  0x00007fb91cef2996: 8b54245c            mov       edx,dword ptr [rsp+5ch]
  0x00007fb91cef299a: 488b4c2460          mov       rcx,qword ptr [rsp+60h]
  0x00007fb91cef299f: 4c8bc3              mov       r8,rbx
  0x00007fb91cef29a2: 448b4c2468          mov       r9d,dword ptr [rsp+68h]
  0x00007fb91cef29a7: 488bf7              mov       rsi,rdi
                                                ;*invokevirtual parse
                                                ; - sun.nio.cs.UTF_8$Encoder::encode@175 (line 724)

  0x00007fb91cef29aa: 90                  nop
  0x00007fb91cef29ab: 90                  nop
  0x00007fb91cef29ac: 90                  nop
  0x00007fb91cef29ad: 48b8ffffffffffffffff mov       rax,0ffffffffffffffffh
  0x00007fb91cef29b7: e82479f3ff          call      7fb91ce2a2e0h
                                                ; OopMap{[96]=Oop [112]=Oop [72]=Oop off=1532}
                                                ;*invokevirtual parse
                                                ; - sun.nio.cs.UTF_8$Encoder::encode@175 (line 724)
                                                ;   {virtual_call}
  0x00007fb91cef29bc: 83f800              cmp       eax,0h
  0x00007fb91cef29bf: 48be18807916b97f0000 mov       rsi,7fb916798018h
                                                ;   {metadata(method data for {method} {0x00007fb9166cdd90} &apos;encode&apos; &apos;([CII[B)I&apos; in &apos;sun/nio/cs/UTF_8$Encoder&apos;)}
  0x00007fb91cef29c9: 48bf9002000000000000 mov       rdi,290h
  0x00007fb91cef29d3: 0f8d0a000000        jnl       7fb91cef29e3h
  0x00007fb91cef29d9: 48bfa002000000000000 mov       rdi,2a0h
  0x00007fb91cef29e3: 488b1c3e            mov       rbx,qword ptr [rsi+rdi]
  0x00007fb91cef29e7: 488d5b01            lea       rbx,[rbx+1h]
  0x00007fb91cef29eb: 48891c3e            mov       qword ptr [rsi+rdi],rbx
  0x00007fb91cef29ef: 0f8d1c010000        jnl       7fb91cef2b11h
                                                ;*ifge
                                                ; - sun.nio.cs.UTF_8$Encoder::encode@182 (line 725)

  0x00007fb91cef29f5: 488b742448          mov       rsi,qword ptr [rsp+48h]
  0x00007fb91cef29fa: 488bc6              mov       rax,rsi
  0x00007fb91cef29fd: 48bf18807916b97f0000 mov       rdi,7fb916798018h
                                                ;   {metadata(method data for {method} {0x00007fb9166cdd90} &apos;encode&apos; &apos;([CII[B)I&apos; in &apos;sun/nio/cs/UTF_8$Encoder&apos;)}
  0x00007fb91cef2a07: 8b4008              mov       eax,dword ptr [rax+8h]
  0x00007fb91cef2a0a: 48c1e003            shl       rax,3h
  0x00007fb91cef2a0e: 483b87b8020000      cmp       rax,qword ptr [rdi+2b8h]
  0x00007fb91cef2a15: 750d                jne       7fb91cef2a24h
  0x00007fb91cef2a17: 488387c002000001    add       qword ptr [rdi+2c0h],1h
  0x00007fb91cef2a1f: e966000000          jmp       7fb91cef2a8ah
  0x00007fb91cef2a24: 483b87c8020000      cmp       rax,qword ptr [rdi+2c8h]
  0x00007fb91cef2a2b: 750d                jne       7fb91cef2a3ah
  0x00007fb91cef2a2d: 488387d002000001    add       qword ptr [rdi+2d0h],1h
  0x00007fb91cef2a35: e950000000          jmp       7fb91cef2a8ah
  0x00007fb91cef2a3a: 4881bfb802000000000000 cmp       qword ptr [rdi+2b8h],0h
  0x00007fb91cef2a45: 7517                jne       7fb91cef2a5eh
  0x00007fb91cef2a47: 488987b8020000      mov       qword ptr [rdi+2b8h],rax
  0x00007fb91cef2a4e: 48c787c002000001000000 mov       qword ptr [rdi+2c0h],1h
  0x00007fb91cef2a59: e92c000000          jmp       7fb91cef2a8ah
  0x00007fb91cef2a5e: 4881bfc802000000000000 cmp       qword ptr [rdi+2c8h],0h
  0x00007fb91cef2a69: 7517                jne       7fb91cef2a82h
  0x00007fb91cef2a6b: 488987c8020000      mov       qword ptr [rdi+2c8h],rax
  0x00007fb91cef2a72: 48c787d002000001000000 mov       qword ptr [rdi+2d0h],1h
  0x00007fb91cef2a7d: e908000000          jmp       7fb91cef2a8ah
  0x00007fb91cef2a82: 488387b002000001    add       qword ptr [rdi+2b0h],1h
  0x00007fb91cef2a8a: 8b4620              mov       eax,dword ptr [rsi+20h]
  0x00007fb91cef2a8d: 48c1e003            shl       rax,3h
                                                ;*getfield malformedInputAction
                                                ; - java.nio.charset.CharsetEncoder::malformedInputAction@1 (line 365)
                                                ; - sun.nio.cs.UTF_8$Encoder::encode@186 (line 726)

  0x00007fb91cef2a91: 49bac868398c07000000 mov       r10,78c3968c8h
                                                ;   {oop(a &apos;java/nio/charset/CodingErrorAction&apos;)}
  0x00007fb91cef2a9b: 493bc2              cmp       rax,r10
  0x00007fb91cef2a9e: 48b818807916b97f0000 mov       rax,7fb916798018h
                                                ;   {metadata(method data for {method} {0x00007fb9166cdd90} &apos;encode&apos; &apos;([CII[B)I&apos; in &apos;sun/nio/cs/UTF_8$Encoder&apos;)}
  0x00007fb91cef2aa8: 48bfe002000000000000 mov       rdi,2e0h
  0x00007fb91cef2ab2: 0f840a000000        je        7fb91cef2ac2h
  0x00007fb91cef2ab8: 48bff002000000000000 mov       rdi,2f0h
  0x00007fb91cef2ac2: 488b1c38            mov       rbx,qword ptr [rax+rdi]
  0x00007fb91cef2ac6: 488d5b01            lea       rbx,[rbx+1h]
  0x00007fb91cef2aca: 48891c38            mov       qword ptr [rax+rdi],rbx
  0x00007fb91cef2ace: 0f85c0010000        jne       7fb91cef2c94h
                                                ;*if_acmpeq
                                                ; - sun.nio.cs.UTF_8$Encoder::encode@192 (line 726)

  0x00007fb91cef2ad4: 8b7c246c            mov       edi,dword ptr [rsp+6ch]
  0x00007fb91cef2ad8: 4c8b4c2470          mov       r9,qword ptr [rsp+70h]
  0x00007fb91cef2add: 488bc7              mov       rax,rdi
  0x00007fb91cef2ae0: ffc0                inc       eax
  0x00007fb91cef2ae2: 0fbe5e2c            movsx     ebx,byte ptr [rsi+2ch]
                                                ;*getfield repl
                                                ; - sun.nio.cs.UTF_8$Encoder::encode@205 (line 728)

  0x00007fb91cef2ae6: 4863d7              movsxd    rdx,edi
  0x00007fb91cef2ae9: 413b790c            cmp       edi,dword ptr [r9+0ch]
  0x00007fb91cef2aed: 0f83a0020000        jnb       7fb91cef2d93h
  0x00007fb91cef2af3: 41885c1110          mov       byte ptr [r9+rdx+10h],bl
                                                ;*bastore
                                                ; - sun.nio.cs.UTF_8$Encoder::encode@208 (line 728)

  0x00007fb91cef2af8: 48bf18807916b97f0000 mov       rdi,7fb916798018h
                                                ;   {metadata(method data for {method} {0x00007fb9166cdd90} &apos;encode&apos; &apos;([CII[B)I&apos; in &apos;sun/nio/cs/UTF_8$Encoder&apos;)}
  0x00007fb91cef2b02: ff8700030000        inc       dword ptr [rdi+300h]
  0x00007fb91cef2b08: 8b5c2458            mov       ebx,dword ptr [rsp+58h]
  0x00007fb91cef2b0c: e9a0000000          jmp       7fb91cef2bb1h
                                                ;*goto
                                                ; - sun.nio.cs.UTF_8$Encoder::encode@209 (line 728)

  0x00007fb91cef2b11: 8b7c246c            mov       edi,dword ptr [rsp+6ch]
  0x00007fb91cef2b15: 4c8b4c2470          mov       r9,qword ptr [rsp+70h]
  0x00007fb91cef2b1a: 488b742448          mov       rsi,qword ptr [rsp+48h]
  0x00007fb91cef2b1f: 488bd8              mov       rbx,rax
  0x00007fb91cef2b22: c1fb12              sar       ebx,12h
  0x00007fb91cef2b25: 81cbf0000000        or        ebx,0f0h
  0x00007fb91cef2b2b: 4863d7              movsxd    rdx,edi
  0x00007fb91cef2b2e: 413b790c            cmp       edi,dword ptr [r9+0ch]
  0x00007fb91cef2b32: 0f8364020000        jnb       7fb91cef2d9ch
  0x00007fb91cef2b38: 41885c1110          mov       byte ptr [r9+rdx+10h],bl
                                                ;*bastore
                                                ; - sun.nio.cs.UTF_8$Encoder::encode@229 (line 730)

  0x00007fb91cef2b3d: ffc7                inc       edi
  0x00007fb91cef2b3f: 488bd8              mov       rbx,rax
  0x00007fb91cef2b42: c1fb0c              sar       ebx,0ch
  0x00007fb91cef2b45: 83e33f              and       ebx,3fh
  0x00007fb91cef2b48: 81cb80000000        or        ebx,80h
  0x00007fb91cef2b4e: 4863d7              movsxd    rdx,edi
  0x00007fb91cef2b51: 413b790c            cmp       edi,dword ptr [r9+0ch]
  0x00007fb91cef2b55: 0f834a020000        jnb       7fb91cef2da5h
  0x00007fb91cef2b5b: 41885c1110          mov       byte ptr [r9+rdx+10h],bl
                                                ;*bastore
                                                ; - sun.nio.cs.UTF_8$Encoder::encode@250 (line 731)

  0x00007fb91cef2b60: ffc7                inc       edi
  0x00007fb91cef2b62: 488bd8              mov       rbx,rax
  0x00007fb91cef2b65: c1fb06              sar       ebx,6h
  0x00007fb91cef2b68: 83e33f              and       ebx,3fh
  0x00007fb91cef2b6b: 81cb80000000        or        ebx,80h
  0x00007fb91cef2b71: 4863d7              movsxd    rdx,edi
  0x00007fb91cef2b74: 413b790c            cmp       edi,dword ptr [r9+0ch]
  0x00007fb91cef2b78: 0f8330020000        jnb       7fb91cef2daeh
  0x00007fb91cef2b7e: 41885c1110          mov       byte ptr [r9+rdx+10h],bl
                                                ;*bastore
                                                ; - sun.nio.cs.UTF_8$Encoder::encode@271 (line 732)

  0x00007fb91cef2b83: ffc7                inc       edi
  0x00007fb91cef2b85: 488bdf              mov       rbx,rdi
  0x00007fb91cef2b88: ffc3                inc       ebx
  0x00007fb91cef2b8a: 83e03f              and       eax,3fh
  0x00007fb91cef2b8d: 81c880000000        or        eax,80h
  0x00007fb91cef2b93: 4863d7              movsxd    rdx,edi
  0x00007fb91cef2b96: 413b790c            cmp       edi,dword ptr [r9+0ch]
  0x00007fb91cef2b9a: 0f8317020000        jnb       7fb91cef2db7h
  0x00007fb91cef2ba0: 4188441110          mov       byte ptr [r9+rdx+10h],al
                                                ;*bastore
                                                ; - sun.nio.cs.UTF_8$Encoder::encode@289 (line 733)

  0x00007fb91cef2ba5: 8b7c2458            mov       edi,dword ptr [rsp+58h]
  0x00007fb91cef2ba9: ffc7                inc       edi
  0x00007fb91cef2bab: 488bc3              mov       rax,rbx
  0x00007fb91cef2bae: 488bdf              mov       rbx,rdi
  0x00007fb91cef2bb1: 48bf18807916b97f0000 mov       rdi,7fb916798018h
                                                ;   {metadata(method data for {method} {0x00007fb9166cdd90} &apos;encode&apos; &apos;([CII[B)I&apos; in &apos;sun/nio/cs/UTF_8$Encoder&apos;)}
  0x00007fb91cef2bbb: ff8718030000        inc       dword ptr [rdi+318h]
  0x00007fb91cef2bc1: 4c8bc0              mov       r8,rax
  0x00007fb91cef2bc4: e96c000000          jmp       7fb91cef2c35h
                                                ;*goto
                                                ; - sun.nio.cs.UTF_8$Encoder::encode@293 (line 736)

  0x00007fb91cef2bc9: 488bf8              mov       rdi,rax
  0x00007fb91cef2bcc: 488bc1              mov       rax,rcx
  0x00007fb91cef2bcf: c1f80c              sar       eax,0ch
  0x00007fb91cef2bd2: 81c8e0000000        or        eax,0e0h
  0x00007fb91cef2bd8: 4863d7              movsxd    rdx,edi
  0x00007fb91cef2bdb: 413b790c            cmp       edi,dword ptr [r9+0ch]
  0x00007fb91cef2bdf: 0f83db010000        jnb       7fb91cef2dc0h
  0x00007fb91cef2be5: 4188441110          mov       byte ptr [r9+rdx+10h],al
                                                ;*bastore
                                                ; - sun.nio.cs.UTF_8$Encoder::encode@313 (line 738)

  0x00007fb91cef2bea: 488bc7              mov       rax,rdi
  0x00007fb91cef2bed: ffc0                inc       eax
  0x00007fb91cef2bef: 488bf9              mov       rdi,rcx
  0x00007fb91cef2bf2: c1ff06              sar       edi,6h
  0x00007fb91cef2bf5: 83e73f              and       edi,3fh
  0x00007fb91cef2bf8: 81cf80000000        or        edi,80h
  0x00007fb91cef2bfe: 4863d0              movsxd    rdx,eax
  0x00007fb91cef2c01: 413b410c            cmp       eax,dword ptr [r9+0ch]
  0x00007fb91cef2c05: 0f83be010000        jnb       7fb91cef2dc9h
  0x00007fb91cef2c0b: 41887c1110          mov       byte ptr [r9+rdx+10h],dil
                                                ;*bastore
                                                ; - sun.nio.cs.UTF_8$Encoder::encode@334 (line 739)

  0x00007fb91cef2c10: ffc0                inc       eax
  0x00007fb91cef2c12: 488bf8              mov       rdi,rax
  0x00007fb91cef2c15: ffc7                inc       edi
  0x00007fb91cef2c17: 83e13f              and       ecx,3fh
  0x00007fb91cef2c1a: 81c980000000        or        ecx,80h
  0x00007fb91cef2c20: 4863d0              movsxd    rdx,eax
  0x00007fb91cef2c23: 413b410c            cmp       eax,dword ptr [r9+0ch]
  0x00007fb91cef2c27: 0f83a5010000        jnb       7fb91cef2dd2h
  0x00007fb91cef2c2d: 41884c1110          mov       byte ptr [r9+rdx+10h],cl
                                                ;*bastore
                                                ; - sun.nio.cs.UTF_8$Encoder::encode@352 (line 740)

  0x00007fb91cef2c32: 4c8bc7              mov       r8,rdi
                                                ;*goto
                                                ; - sun.nio.cs.UTF_8$Encoder::encode@353 (line 742)

  0x00007fb91cef2c35: 48b818807916b97f0000 mov       rax,7fb916798018h
                                                ;   {metadata(method data for {method} {0x00007fb9166cdd90} &apos;encode&apos; &apos;([CII[B)I&apos; in &apos;sun/nio/cs/UTF_8$Encoder&apos;)}
  0x00007fb91cef2c3f: 8bb8e0000000        mov       edi,dword ptr [rax+0e0h]
  0x00007fb91cef2c45: 83c708              add       edi,8h
  0x00007fb91cef2c48: 89b8e0000000        mov       dword ptr [rax+0e0h],edi
  0x00007fb91cef2c4e: 48b890dd6c16b97f0000 mov       rax,7fb9166cdd90h
                                                ;   {metadata({method} {0x00007fb9166cdd90} &apos;encode&apos; &apos;([CII[B)I&apos; in &apos;sun/nio/cs/UTF_8$Encoder&apos;)}
  0x00007fb91cef2c58: 81e7f8ff0000        and       edi,0fff8h
  0x00007fb91cef2c5e: 83ff00              cmp       edi,0h
  0x00007fb91cef2c61: 0f8474010000        je        7fb91cef2ddbh
                                                ; OopMap{[96]=Oop rsi=Oop [72]=Oop r9=Oop [112]=Oop off=2215}
                                                ;*goto
                                                ; - sun.nio.cs.UTF_8$Encoder::encode@353 (line 742)

  0x00007fb91cef2c67: 850593043816        test      dword ptr [7fb933273100h],eax
                                                ;   {poll}
  0x00007fb91cef2c6d: 48b818807916b97f0000 mov       rax,7fb916798018h
                                                ;   {metadata(method data for {method} {0x00007fb9166cdd90} &apos;encode&apos; &apos;([CII[B)I&apos; in &apos;sun/nio/cs/UTF_8$Encoder&apos;)}
  0x00007fb91cef2c77: ff8030030000        inc       dword ptr [rax+330h]
  0x00007fb91cef2c7d: 498bf8              mov       rdi,r8
  0x00007fb91cef2c80: 488bcb              mov       rcx,rbx
  0x00007fb91cef2c83: 488bc7              mov       rax,rdi
  0x00007fb91cef2c86: 8b7c2468            mov       edi,dword ptr [rsp+68h]
  0x00007fb91cef2c8a: 488b542460          mov       rdx,qword ptr [rsp+60h]
  0x00007fb91cef2c8f: e944f9ffff          jmp       7fb91cef25d8h
                                                ;*goto
                                                ; - sun.nio.cs.UTF_8$Encoder::encode@353 (line 742)

  0x00007fb91cef2c94: b8ffffffff          mov       eax,0ffffffffh
  0x00007fb91cef2c99: 4881c480000000      add       rsp,80h
  0x00007fb91cef2ca0: 5d                  pop       rbp
  0x00007fb91cef2ca1: 850559043816        test      dword ptr [7fb933273100h],eax
                                                ;   {poll_return}
  0x00007fb91cef2ca7: c3                  ret   ;*ireturn
                                                ; - sun.nio.cs.UTF_8$Encoder::encode@196 (line 727)

  0x00007fb91cef2ca8: 488bf8              mov       rdi,rax
  0x00007fb91cef2cab: 488bc7              mov       rax,rdi
  0x00007fb91cef2cae: 4881c480000000      add       rsp,80h
  0x00007fb91cef2cb5: 5d                  pop       rbp
  0x00007fb91cef2cb6: 850544043816        test      dword ptr [7fb933273100h],eax
                                                ;   {poll_return}
  0x00007fb91cef2cbc: c3                  ret
  0x00007fb91cef2cbd: 4889442408          mov       qword ptr [rsp+8h],rax
  0x00007fb91cef2cc2: 48c70424ffffffff    mov       qword ptr [rsp],0ffffffffffffffffh
  0x00007fb91cef2cca: e8d1c5ffff          call      7fb91ceef2a0h
                                                ; OopMap{rsi=Oop [72]=Oop rdx=Oop [96]=Oop r9=Oop [112]=Oop off=2319}
                                                ;*synchronization entry
                                                ; - sun.nio.cs.UTF_8$Encoder::encode@-1 (line 704)
                                                ;   {runtime_call}
  0x00007fb91cef2ccf: e95cf7ffff          jmp       7fb91cef2430h
  0x00007fb91cef2cd4: e8e7a5ffff          call      7fb91ceed2c0h
                                                ; OopMap{rsi=Oop [72]=Oop rdx=Oop [96]=Oop r9=Oop [112]=Oop off=2329}
                                                ;*arraylength
                                                ; - sun.nio.cs.UTF_8$Encoder::encode@13 (line 706)
                                                ;   {runtime_call}
  0x00007fb91cef2cd9: 48895c2408          mov       qword ptr [rsp+8h],rbx
  0x00007fb91cef2cde: 48c70424ffffffff    mov       qword ptr [rsp],0ffffffffffffffffh
  0x00007fb91cef2ce6: e8b5c5ffff          call      7fb91ceef2a0h
                                                ; OopMap{rsi=Oop [72]=Oop rdx=Oop [96]=Oop r9=Oop [112]=Oop off=2347}
                                                ;*synchronization entry
                                                ; - java.lang.Math::min@-1 (line 1336)
                                                ; - sun.nio.cs.UTF_8$Encoder::encode@14 (line 706)
                                                ;   {runtime_call}
  0x00007fb91cef2ceb: e997f7ffff          jmp       7fb91cef2487h
  0x00007fb91cef2cf0: e8cba5ffff          call      7fb91ceed2c0h
                                                ; OopMap{rsi=Oop [72]=Oop rdx=Oop [96]=Oop r9=Oop [112]=Oop off=2357}
                                                ;*caload
                                                ; - sun.nio.cs.UTF_8$Encoder::encode@29 (line 709)
                                                ;   {runtime_call}
  0x00007fb91cef2cf5: e8c6a5ffff          call      7fb91ceed2c0h
                                                ; OopMap{rsi=Oop [72]=Oop rdx=Oop [96]=Oop r9=Oop [112]=Oop off=2362}
                                                ;*caload
                                                ; - sun.nio.cs.UTF_8$Encoder::encode@29 (line 709)
                                                ;   {runtime_call}
  0x00007fb91cef2cfa: 48890c24            mov       qword ptr [rsp],rcx
  0x00007fb91cef2cfe: e8fd9effff          call      7fb91ceecc00h
                                                ; OopMap{rsi=Oop [72]=Oop rdx=Oop [96]=Oop r9=Oop [112]=Oop off=2371}
                                                ;*caload
                                                ; - sun.nio.cs.UTF_8$Encoder::encode@29 (line 709)
                                                ;   {runtime_call}
  0x00007fb91cef2d03: 48890424            mov       qword ptr [rsp],rax
  0x00007fb91cef2d07: e8f49effff          call      7fb91ceecc00h
                                                ; OopMap{rsi=Oop [72]=Oop rdx=Oop [96]=Oop r9=Oop [112]=Oop off=2380}
                                                ;*bastore
                                                ; - sun.nio.cs.UTF_8$Encoder::encode@50 (line 710)
                                                ;   {runtime_call}
  0x00007fb91cef2d0c: 4889442408          mov       qword ptr [rsp+8h],rax
  0x00007fb91cef2d11: 48c7042433000000    mov       qword ptr [rsp],33h
  0x00007fb91cef2d19: e882c5ffff          call      7fb91ceef2a0h
                                                ; OopMap{rsi=Oop [72]=Oop rdx=Oop [96]=Oop r9=Oop [112]=Oop off=2398}
                                                ;*goto
                                                ; - sun.nio.cs.UTF_8$Encoder::encode@51 (line 710)
                                                ;   {runtime_call}
  0x00007fb91cef2d1e: e95ef8ffff          jmp       7fb91cef2581h
  0x00007fb91cef2d23: e898a5ffff          call      7fb91ceed2c0h
                                                ; OopMap{rsi=Oop [72]=Oop rdx=Oop [96]=Oop r9=Oop [112]=Oop off=2408}
                                                ;*caload
                                                ; - sun.nio.cs.UTF_8$Encoder::encode@65 (line 713)
                                                ;   {runtime_call}
  0x00007fb91cef2d28: e893a5ffff          call      7fb91ceed2c0h
                                                ; OopMap{rsi=Oop [72]=Oop rdx=Oop [96]=Oop r9=Oop [112]=Oop off=2413}
                                                ;*caload
                                                ; - sun.nio.cs.UTF_8$Encoder::encode@65 (line 713)
                                                ;   {runtime_call}
  0x00007fb91cef2d2d: 48890c24            mov       qword ptr [rsp],rcx
  0x00007fb91cef2d31: e8ca9effff          call      7fb91ceecc00h
                                                ; OopMap{rsi=Oop [72]=Oop rdx=Oop [96]=Oop r9=Oop [112]=Oop off=2422}
                                                ;*caload
                                                ; - sun.nio.cs.UTF_8$Encoder::encode@65 (line 713)
                                                ;   {runtime_call}
  0x00007fb91cef2d36: 48890424            mov       qword ptr [rsp],rax
  0x00007fb91cef2d3a: e8c19effff          call      7fb91ceecc00h
                                                ; OopMap{rsi=Oop [72]=Oop rdx=Oop [96]=Oop r9=Oop [112]=Oop off=2431}
                                                ;*bastore
                                                ; - sun.nio.cs.UTF_8$Encoder::encode@86 (line 716)
                                                ;   {runtime_call}
  0x00007fb91cef2d3f: 48890424            mov       qword ptr [rsp],rax
  0x00007fb91cef2d43: e8b89effff          call      7fb91ceecc00h
                                                ; OopMap{rsi=Oop [72]=Oop rdx=Oop [96]=Oop r9=Oop [112]=Oop off=2440}
                                                ;*bastore
                                                ; - sun.nio.cs.UTF_8$Encoder::encode@115 (line 719)
                                                ;   {runtime_call}
  0x00007fb91cef2d48: 48890424            mov       qword ptr [rsp],rax
  0x00007fb91cef2d4c: e8af9effff          call      7fb91ceecc00h
                                                ; OopMap{rsi=Oop [72]=Oop rdx=Oop [96]=Oop r9=Oop [112]=Oop off=2449}
                                                ;*bastore
                                                ; - sun.nio.cs.UTF_8$Encoder::encode@133 (line 720)
                                                ;   {runtime_call}
  0x00007fb91cef2d51: 4c89442408          mov       qword ptr [rsp+8h],r8
  0x00007fb91cef2d56: 48c70424ffffffff    mov       qword ptr [rsp],0ffffffffffffffffh
  0x00007fb91cef2d5e: e83dc5ffff          call      7fb91ceef2a0h
                                                ; OopMap{rsi=Oop [72]=Oop rdx=Oop [96]=Oop r9=Oop [112]=Oop off=2467}
                                                ;*synchronization entry
                                                ; - java.lang.Character::isSurrogate@-1 (line 4776)
                                                ; - sun.nio.cs.UTF_8$Encoder::encode@139 (line 721)
                                                ;   {runtime_call}
  0x00007fb91cef2d63: e905faffff          jmp       7fb91cef276dh
  0x00007fb91cef2d68: 48ba0000000000000000 mov       rdx,0h
                                                ;   {metadata(NULL)}
  0x00007fb91cef2d72: b8000f050a          mov       eax,0a050f00h
  0x00007fb91cef2d77: e8247cffff          call      7fb91ceea9a0h
                                                ; OopMap{[112]=Oop [72]=Oop [96]=Oop off=2492}
                                                ;*new  ; - sun.nio.cs.UTF_8$Encoder::encode@153 (line 723)
                                                ;   {runtime_call}
  0x00007fb91cef2d7c: e917fbffff          jmp       7fb91cef2898h
  0x00007fb91cef2d81: 488bd2              mov       rdx,rdx
  0x00007fb91cef2d84: e8d7a9ffff          call      7fb91ceed760h
                                                ; OopMap{[112]=Oop [72]=Oop [96]=Oop off=2505}
                                                ;*new  ; - sun.nio.cs.UTF_8$Encoder::encode@153 (line 723)
                                                ;   {runtime_call}
  0x00007fb91cef2d89: e919fbffff          jmp       7fb91cef28a7h
  0x00007fb91cef2d8e: e82da5ffff          call      7fb91ceed2c0h
                                                ; OopMap{[96]=Oop [112]=Oop rsi=Oop [72]=Oop rdi=Oop off=2515}
                                                ;*invokevirtual parse
                                                ; - sun.nio.cs.UTF_8$Encoder::encode@175 (line 724)
                                                ;   {runtime_call}
  0x00007fb91cef2d93: 48893c24            mov       qword ptr [rsp],rdi
  0x00007fb91cef2d97: e8649effff          call      7fb91ceecc00h
                                                ; OopMap{[96]=Oop rsi=Oop [72]=Oop r9=Oop [112]=Oop off=2524}
                                                ;*bastore
                                                ; - sun.nio.cs.UTF_8$Encoder::encode@208 (line 728)
                                                ;   {runtime_call}
  0x00007fb91cef2d9c: 48893c24            mov       qword ptr [rsp],rdi
  0x00007fb91cef2da0: e85b9effff          call      7fb91ceecc00h
                                                ; OopMap{[96]=Oop rsi=Oop [72]=Oop r9=Oop [112]=Oop off=2533}
                                                ;*bastore
                                                ; - sun.nio.cs.UTF_8$Encoder::encode@229 (line 730)
                                                ;   {runtime_call}
  0x00007fb91cef2da5: 48893c24            mov       qword ptr [rsp],rdi
  0x00007fb91cef2da9: e8529effff          call      7fb91ceecc00h
                                                ; OopMap{[96]=Oop rsi=Oop [72]=Oop r9=Oop [112]=Oop off=2542}
                                                ;*bastore
                                                ; - sun.nio.cs.UTF_8$Encoder::encode@250 (line 731)
                                                ;   {runtime_call}
  0x00007fb91cef2dae: 48893c24            mov       qword ptr [rsp],rdi
  0x00007fb91cef2db2: e8499effff          call      7fb91ceecc00h
                                                ; OopMap{[96]=Oop rsi=Oop [72]=Oop r9=Oop [112]=Oop off=2551}
                                                ;*bastore
                                                ; - sun.nio.cs.UTF_8$Encoder::encode@271 (line 732)
                                                ;   {runtime_call}
  0x00007fb91cef2db7: 48893c24            mov       qword ptr [rsp],rdi
  0x00007fb91cef2dbb: e8409effff          call      7fb91ceecc00h
                                                ; OopMap{[96]=Oop rsi=Oop [72]=Oop r9=Oop [112]=Oop off=2560}
                                                ;*bastore
                                                ; - sun.nio.cs.UTF_8$Encoder::encode@289 (line 733)
                                                ;   {runtime_call}
  0x00007fb91cef2dc0: 48893c24            mov       qword ptr [rsp],rdi
  0x00007fb91cef2dc4: e8379effff          call      7fb91ceecc00h
                                                ; OopMap{[96]=Oop rsi=Oop [72]=Oop r9=Oop [112]=Oop off=2569}
                                                ;*bastore
                                                ; - sun.nio.cs.UTF_8$Encoder::encode@313 (line 738)
                                                ;   {runtime_call}
  0x00007fb91cef2dc9: 48890424            mov       qword ptr [rsp],rax
  0x00007fb91cef2dcd: e82e9effff          call      7fb91ceecc00h
                                                ; OopMap{[96]=Oop rsi=Oop [72]=Oop r9=Oop [112]=Oop off=2578}
                                                ;*bastore
                                                ; - sun.nio.cs.UTF_8$Encoder::encode@334 (line 739)
                                                ;   {runtime_call}
  0x00007fb91cef2dd2: 48890424            mov       qword ptr [rsp],rax
  0x00007fb91cef2dd6: e8259effff          call      7fb91ceecc00h
                                                ; OopMap{[96]=Oop rsi=Oop [72]=Oop r9=Oop [112]=Oop off=2587}
                                                ;*bastore
                                                ; - sun.nio.cs.UTF_8$Encoder::encode@352 (line 740)
                                                ;   {runtime_call}
  0x00007fb91cef2ddb: 4889442408          mov       qword ptr [rsp+8h],rax
  0x00007fb91cef2de0: 48c7042461010000    mov       qword ptr [rsp],161h
  0x00007fb91cef2de8: e8b3c4ffff          call      7fb91ceef2a0h
                                                ; OopMap{[96]=Oop rsi=Oop [72]=Oop r9=Oop [112]=Oop off=2605}
                                                ;*goto
                                                ; - sun.nio.cs.UTF_8$Encoder::encode@353 (line 742)
                                                ;   {runtime_call}
  0x00007fb91cef2ded: e975feffff          jmp       7fb91cef2c67h
  0x00007fb91cef2df2: 90                  nop
  0x00007fb91cef2df3: 90                  nop
  0x00007fb91cef2df4: 498b87a8020000      mov       rax,qword ptr [r15+2a8h]
  0x00007fb91cef2dfb: 49ba0000000000000000 mov       r10,0h
  0x00007fb91cef2e05: 4d8997a8020000      mov       qword ptr [r15+2a8h],r10
  0x00007fb91cef2e0c: 49ba0000000000000000 mov       r10,0h
  0x00007fb91cef2e16: 4d8997b0020000      mov       qword ptr [r15+2b0h],r10
  0x00007fb91cef2e1d: 4881c480000000      add       rsp,80h
  0x00007fb91cef2e24: 5d                  pop       rbp
  0x00007fb91cef2e25: e976faf5ff          jmp       7fb91ce528a0h
                                                ;   {runtime_call}
  0x00007fb91cef2e2a: f4                  hlt
  0x00007fb91cef2e2b: f4                  hlt
  0x00007fb91cef2e2c: f4                  hlt
  0x00007fb91cef2e2d: f4                  hlt
  0x00007fb91cef2e2e: f4                  hlt
  0x00007fb91cef2e2f: f4                  hlt
  0x00007fb91cef2e30: f4                  hlt
  0x00007fb91cef2e31: f4                  hlt
  0x00007fb91cef2e32: f4                  hlt
  0x00007fb91cef2e33: f4                  hlt
  0x00007fb91cef2e34: f4                  hlt
  0x00007fb91cef2e35: f4                  hlt
  0x00007fb91cef2e36: f4                  hlt
  0x00007fb91cef2e37: f4                  hlt
  0x00007fb91cef2e38: f4                  hlt
  0x00007fb91cef2e39: f4                  hlt
  0x00007fb91cef2e3a: f4                  hlt
  0x00007fb91cef2e3b: f4                  hlt
  0x00007fb91cef2e3c: f4                  hlt
  0x00007fb91cef2e3d: f4                  hlt
  0x00007fb91cef2e3e: f4                  hlt
  0x00007fb91cef2e3f: f4                  hlt
[Stub Code]
  0x00007fb91cef2e40: 90                  nop   ;   {no_reloc}
  0x00007fb91cef2e41: 90                  nop
  0x00007fb91cef2e42: 90                  nop
  0x00007fb91cef2e43: 90                  nop
  0x00007fb91cef2e44: 90                  nop
  0x00007fb91cef2e45: 48bb0000000000000000 mov       rbx,0h
                                                ;   {static_stub}
  0x00007fb91cef2e4f: e9fbffffff          jmp       7fb91cef2e4fh
                                                ;   {runtime_call}
  0x00007fb91cef2e54: 90                  nop
  0x00007fb91cef2e55: 48bb0000000000000000 mov       rbx,0h
                                                ;   {static_stub}
  0x00007fb91cef2e5f: e9fbffffff          jmp       7fb91cef2e5fh
                                                ;   {runtime_call}
[Exception Handler]
  0x00007fb91cef2e64: e877f6f5ff          call      7fb91ce524e0h
                                                ;   {runtime_call}
  0x00007fb91cef2e69: 48896424d8          mov       qword ptr [rsp+0ffffffffffffffd8h],rsp
  0x00007fb91cef2e6e: 4881ec80000000      sub       rsp,80h
  0x00007fb91cef2e75: 4889442478          mov       qword ptr [rsp+78h],rax
  0x00007fb91cef2e7a: 48894c2470          mov       qword ptr [rsp+70h],rcx
  0x00007fb91cef2e7f: 4889542468          mov       qword ptr [rsp+68h],rdx
  0x00007fb91cef2e84: 48895c2460          mov       qword ptr [rsp+60h],rbx
  0x00007fb91cef2e89: 48896c2450          mov       qword ptr [rsp+50h],rbp
  0x00007fb91cef2e8e: 4889742448          mov       qword ptr [rsp+48h],rsi
  0x00007fb91cef2e93: 48897c2440          mov       qword ptr [rsp+40h],rdi
  0x00007fb91cef2e98: 4c89442438          mov       qword ptr [rsp+38h],r8
  0x00007fb91cef2e9d: 4c894c2430          mov       qword ptr [rsp+30h],r9
  0x00007fb91cef2ea2: 4c89542428          mov       qword ptr [rsp+28h],r10
  0x00007fb91cef2ea7: 4c895c2420          mov       qword ptr [rsp+20h],r11
  0x00007fb91cef2eac: 4c89642418          mov       qword ptr [rsp+18h],r12
  0x00007fb91cef2eb1: 4c896c2410          mov       qword ptr [rsp+10h],r13
  0x00007fb91cef2eb6: 4c89742408          mov       qword ptr [rsp+8h],r14
  0x00007fb91cef2ebb: 4c893c24            mov       qword ptr [rsp],r15
  0x00007fb91cef2ebf: 48bff6591532b97f0000 mov       rdi,7fb9321559f6h
                                                ;   {external_word}
  0x00007fb91cef2ec9: 48be692eef1cb97f0000 mov       rsi,7fb91cef2e69h
                                                ;   {internal_word}
  0x00007fb91cef2ed3: 488bd4              mov       rdx,rsp
  0x00007fb91cef2ed6: 4883e4f0            and       rsp,0fffffffffffffff0h
  0x00007fb91cef2eda: e88163f614          call      7fb931e59260h
                                                ;   {runtime_call}
  0x00007fb91cef2edf: f4                  hlt
[Deopt Handler Code]
  0x00007fb91cef2ee0: 49bae02eef1cb97f0000 mov       r10,7fb91cef2ee0h
                                                ;   {section_word}
  0x00007fb91cef2eea: 4152                push      r10
  0x00007fb91cef2eec: e90f86f3ff          jmp       7fb91ce2b500h
                                                ;   {runtime_call}
  0x00007fb91cef2ef1: f4                  hlt
  0x00007fb91cef2ef2: f4                  hlt
  0x00007fb91cef2ef3: f4                  hlt
  0x00007fb91cef2ef4: f4                  hlt
  0x00007fb91cef2ef5: f4                  hlt
  0x00007fb91cef2ef6: f4                  hlt
  0x00007fb91cef2ef7: f4                  hlt
<nmethod compile_id='17' compiler='C1' level='3' entry='0x00007fb91cef23c0' size='5552' address='0x00007fb91cef21d0' relocation_offset='296' insts_offset='496' stub_offset='3184' scopes_data_offset='3400' scopes_pcs_offset='4176' dependencies_offset='5488' nul_chk_table_offset='5496' method='sun/nio/cs/UTF_8$Encoder encode ([CII[B)I' bytes='359' count='420' backedge_count='23405' iicount='420' stamp='0.316'/>
Decoding compiled method 0x00007fb91cef3790:
Code:
Argument 0 is unknown.RIP: 0x7fb91cef3900 Code size: 0x00000330
[Entry Point]
[Constants]
  # {method} {0x00007fb916582df8} &apos;startsWith&apos; &apos;(Ljava/lang/String;I)Z&apos; in &apos;java/lang/String&apos;
  # this:     rsi:rsi   = &apos;java/lang/String&apos;
  # parm0:    rdx:rdx   = &apos;java/lang/String&apos;
  # parm1:    rcx       = int
  #           [sp+0x40]  (sp of caller)
  0x00007fb91cef3900: 448b5608            mov       r10d,dword ptr [rsi+8h]
  0x00007fb91cef3904: 49c1e203            shl       r10,3h
  0x00007fb91cef3908: 4c3bd0              cmp       r10,rax
  0x00007fb91cef390b: 0f854f65f3ff        jne       7fb91ce29e60h
                                                ;   {runtime_call}
  0x00007fb91cef3911: 6666660f1f840000000000 nop       word ptr [rax+rax+0h]
  0x00007fb91cef391c: 66666690            nop
[Verified Entry Point]
  0x00007fb91cef3920: 89842400c0feff      mov       dword ptr [rsp+0fffffffffffec000h],eax
  0x00007fb91cef3927: 55                  push      rbp
  0x00007fb91cef3928: 4883ec30            sub       rsp,30h
  0x00007fb91cef392c: 48b8409b7b16b97f0000 mov       rax,7fb9167b9b40h
                                                ;   {metadata(method data for {method} {0x00007fb916582df8} &apos;startsWith&apos; &apos;(Ljava/lang/String;I)Z&apos; in &apos;java/lang/String&apos;)}
  0x00007fb91cef3936: 8bb8dc000000        mov       edi,dword ptr [rax+0dch]
  0x00007fb91cef393c: 83c708              add       edi,8h
  0x00007fb91cef393f: 89b8dc000000        mov       dword ptr [rax+0dch],edi
  0x00007fb91cef3945: 48b8f82d5816b97f0000 mov       rax,7fb916582df8h
                                                ;   {metadata({method} {0x00007fb916582df8} &apos;startsWith&apos; &apos;(Ljava/lang/String;I)Z&apos; in &apos;java/lang/String&apos;)}
  0x00007fb91cef394f: 81e7f81f0000        and       edi,1ff8h
  0x00007fb91cef3955: 83ff00              cmp       edi,0h
  0x00007fb91cef3958: 0f84af010000        je        7fb91cef3b0dh
                                                ;*aload_0
                                                ; - java.lang.String::startsWith@0 (line 1403)

  0x00007fb91cef395e: 8b460c              mov       eax,dword ptr [rsi+0ch]
  0x00007fb91cef3961: 48c1e003            shl       rax,3h
                                                ;*getfield value
                                                ; - java.lang.String::startsWith@1 (line 1403)

  0x00007fb91cef3965: 8b720c              mov       esi,dword ptr [rdx+0ch]
                                                ; implicit exception: dispatches to 0x00007fb91cef3b24
  0x00007fb91cef3968: 48c1e603            shl       rsi,3h
                                                ;*getfield value
                                                ; - java.lang.String::startsWith@9 (line 1405)

  0x00007fb91cef396c: 8b7e0c              mov       edi,dword ptr [rsi+0ch]
                                                ;*arraylength
                                                ; - java.lang.String::startsWith@21 (line 1407)
                                                ; implicit exception: dispatches to 0x00007fb91cef3b29
  0x00007fb91cef396f: 83f900              cmp       ecx,0h
  0x00007fb91cef3972: 48bb409b7b16b97f0000 mov       rbx,7fb9167b9b40h
                                                ;   {metadata(method data for {method} {0x00007fb916582df8} &apos;startsWith&apos; &apos;(Ljava/lang/String;I)Z&apos; in &apos;java/lang/String&apos;)}
  0x00007fb91cef397c: 48ba0801000000000000 mov       rdx,108h
  0x00007fb91cef3986: 0f8c0a000000        jl        7fb91cef3996h
  0x00007fb91cef398c: 48ba1801000000000000 mov       rdx,118h
  0x00007fb91cef3996: 4c8b0413            mov       r8,qword ptr [rbx+rdx]
  0x00007fb91cef399a: 4d8d4001            lea       r8,[r8+1h]
  0x00007fb91cef399e: 4c890413            mov       qword ptr [rbx+rdx],r8
  0x00007fb91cef39a2: 0f8c32010000        jl        7fb91cef3adah
                                                ;*iflt
                                                ; - java.lang.String::startsWith@25 (line 1409)

  0x00007fb91cef39a8: 8b580c              mov       ebx,dword ptr [rax+0ch]
                                                ;*arraylength
                                                ; - java.lang.String::startsWith@33 (line 1409)
                                                ; implicit exception: dispatches to 0x00007fb91cef3b2e
  0x00007fb91cef39ab: 2bdf                sub       ebx,edi
  0x00007fb91cef39ad: 3bcb                cmp       ecx,ebx
  0x00007fb91cef39af: 48bb409b7b16b97f0000 mov       rbx,7fb9167b9b40h
                                                ;   {metadata(method data for {method} {0x00007fb916582df8} &apos;startsWith&apos; &apos;(Ljava/lang/String;I)Z&apos; in &apos;java/lang/String&apos;)}
  0x00007fb91cef39b9: 48ba2801000000000000 mov       rdx,128h
  0x00007fb91cef39c3: 0f8e0a000000        jle       7fb91cef39d3h
  0x00007fb91cef39c9: 48ba3801000000000000 mov       rdx,138h
  0x00007fb91cef39d3: 4c8b0413            mov       r8,qword ptr [rbx+rdx]
  0x00007fb91cef39d7: 4d8d4001            lea       r8,[r8+1h]
  0x00007fb91cef39db: 4c890413            mov       qword ptr [rbx+rdx],r8
  0x00007fb91cef39df: 0f8ff5000000        jnle      7fb91cef3adah
                                                ;*if_icmple
                                                ; - java.lang.String::startsWith@37 (line 1409)

  0x00007fb91cef39e5: bb00000000          mov       ebx,0h
  0x00007fb91cef39ea: e9ab000000          jmp       7fb91cef3a9ah
                                                ;*iinc
                                                ; - java.lang.String::startsWith@42 (line 1412)

  0x00007fb91cef39ef: 90                  nop
  0x00007fb91cef39f0: 488bd1              mov       rdx,rcx
  0x00007fb91cef39f3: ffc2                inc       edx
  0x00007fb91cef39f5: 4c63c1              movsxd    r8,ecx
  0x00007fb91cef39f8: 3b480c              cmp       ecx,dword ptr [rax+0ch]
  0x00007fb91cef39fb: 0f8332010000        jnb       7fb91cef3b33h
  0x00007fb91cef3a01: 420fb74c4010        movzx     ecx,word ptr [rax+r8*2+10h]
                                                ;*caload
                                                ; - java.lang.String::startsWith@56 (line 1413)

  0x00007fb91cef3a07: 4c8bc3              mov       r8,rbx
  0x00007fb91cef3a0a: 41ffc0              inc       r8d
  0x00007fb91cef3a0d: 4c63cb              movsxd    r9,ebx
  0x00007fb91cef3a10: 3b5e0c              cmp       ebx,dword ptr [rsi+0ch]
  0x00007fb91cef3a13: 0f8323010000        jnb       7fb91cef3b3ch
  0x00007fb91cef3a19: 420fb75c4e10        movzx     ebx,word ptr [rsi+r9*2+10h]
                                                ;*caload
                                                ; - java.lang.String::startsWith@64 (line 1413)

  0x00007fb91cef3a1f: 49b9409b7b16b97f0000 mov       r9,7fb9167b9b40h
                                                ;   {metadata(method data for {method} {0x00007fb916582df8} &apos;startsWith&apos; &apos;(Ljava/lang/String;I)Z&apos; in &apos;java/lang/String&apos;)}
  0x00007fb91cef3a29: 458b99e0000000      mov       r11d,dword ptr [r9+0e0h]
  0x00007fb91cef3a30: 4183c308            add       r11d,8h
  0x00007fb91cef3a34: 458999e0000000      mov       dword ptr [r9+0e0h],r11d
  0x00007fb91cef3a3b: 49b9f82d5816b97f0000 mov       r9,7fb916582df8h
                                                ;   {metadata({method} {0x00007fb916582df8} &apos;startsWith&apos; &apos;(Ljava/lang/String;I)Z&apos; in &apos;java/lang/String&apos;)}
  0x00007fb91cef3a45: 4181e3f8ff0000      and       r11d,0fff8h
  0x00007fb91cef3a4c: 4183fb00            cmp       r11d,0h
  0x00007fb91cef3a50: 0f84ef000000        je        7fb91cef3b45h
                                                ; OopMap{rsi=Oop rax=Oop off=342}
                                                ;*if_icmpeq
                                                ; - java.lang.String::startsWith@65 (line 1413)

  0x00007fb91cef3a56: 8505a4f63716        test      dword ptr [7fb933273100h],eax
                                                ;   {poll}
  0x00007fb91cef3a5c: 3bcb                cmp       ecx,ebx
  0x00007fb91cef3a5e: 48bb409b7b16b97f0000 mov       rbx,7fb9167b9b40h
                                                ;   {metadata(method data for {method} {0x00007fb916582df8} &apos;startsWith&apos; &apos;(Ljava/lang/String;I)Z&apos; in &apos;java/lang/String&apos;)}
  0x00007fb91cef3a68: 48b96801000000000000 mov       rcx,168h
  0x00007fb91cef3a72: 0f840a000000        je        7fb91cef3a82h
  0x00007fb91cef3a78: 48b97801000000000000 mov       rcx,178h
  0x00007fb91cef3a82: 4c8b0c0b            mov       r9,qword ptr [rbx+rcx]
  0x00007fb91cef3a86: 4d8d4901            lea       r9,[r9+1h]
  0x00007fb91cef3a8a: 4c890c0b            mov       qword ptr [rbx+rcx],r9
  0x00007fb91cef3a8e: 0f8557000000        jne       7fb91cef3aebh
                                                ;*if_icmpeq
                                                ; - java.lang.String::startsWith@65 (line 1413)

  0x00007fb91cef3a94: 498bd8              mov       rbx,r8
  0x00007fb91cef3a97: 488bca              mov       rcx,rdx
                                                ;*iinc
                                                ; - java.lang.String::startsWith@42 (line 1412)

  0x00007fb91cef3a9a: ffcf                dec       edi
  0x00007fb91cef3a9c: 83ff00              cmp       edi,0h
  0x00007fb91cef3a9f: 48ba409b7b16b97f0000 mov       rdx,7fb9167b9b40h
                                                ;   {metadata(method data for {method} {0x00007fb916582df8} &apos;startsWith&apos; &apos;(Ljava/lang/String;I)Z&apos; in &apos;java/lang/String&apos;)}
  0x00007fb91cef3aa9: 49b84801000000000000 mov       r8,148h
  0x00007fb91cef3ab3: 0f8c0a000000        jl        7fb91cef3ac3h
  0x00007fb91cef3ab9: 49b85801000000000000 mov       r8,158h
  0x00007fb91cef3ac3: 4e8b0c02            mov       r9,qword ptr [rdx+r8]
  0x00007fb91cef3ac7: 4d8d4901            lea       r9,[r9+1h]
  0x00007fb91cef3acb: 4e890c02            mov       qword ptr [rdx+r8],r9
  0x00007fb91cef3acf: 0f8c27000000        jl        7fb91cef3afch
  0x00007fb91cef3ad5: e916ffffff          jmp       7fb91cef39f0h
                                                ;*iflt
                                                ; - java.lang.String::startsWith@47 (line 1412)

  0x00007fb91cef3ada: b800000000          mov       eax,0h
  0x00007fb91cef3adf: 4883c430            add       rsp,30h
  0x00007fb91cef3ae3: 5d                  pop       rbp
  0x00007fb91cef3ae4: 850516f63716        test      dword ptr [7fb933273100h],eax
                                                ;   {poll_return}
  0x00007fb91cef3aea: c3                  ret   ;*ireturn
                                                ; - java.lang.String::startsWith@41 (line 1410)

  0x00007fb91cef3aeb: b800000000          mov       eax,0h
  0x00007fb91cef3af0: 4883c430            add       rsp,30h
  0x00007fb91cef3af4: 5d                  pop       rbp
  0x00007fb91cef3af5: 850505f63716        test      dword ptr [7fb933273100h],eax
                                                ;   {poll_return}
  0x00007fb91cef3afb: c3                  ret   ;*ireturn
                                                ; - java.lang.String::startsWith@69 (line 1414)

  0x00007fb91cef3afc: b801000000          mov       eax,1h
  0x00007fb91cef3b01: 4883c430            add       rsp,30h
  0x00007fb91cef3b05: 5d                  pop       rbp
  0x00007fb91cef3b06: 8505f4f53716        test      dword ptr [7fb933273100h],eax
                                                ;   {poll_return}
  0x00007fb91cef3b0c: c3                  ret
  0x00007fb91cef3b0d: 4889442408          mov       qword ptr [rsp+8h],rax
  0x00007fb91cef3b12: 48c70424ffffffff    mov       qword ptr [rsp],0ffffffffffffffffh
  0x00007fb91cef3b1a: e881b7ffff          call      7fb91ceef2a0h
                                                ; OopMap{rsi=Oop rdx=Oop off=543}
                                                ;*synchronization entry
                                                ; - java.lang.String::startsWith@-1 (line 1403)
                                                ;   {runtime_call}
  0x00007fb91cef3b1f: e93afeffff          jmp       7fb91cef395eh
  0x00007fb91cef3b24: e89797ffff          call      7fb91ceed2c0h
                                                ; OopMap{rax=Oop off=553}
                                                ;*getfield value
                                                ; - java.lang.String::startsWith@9 (line 1405)
                                                ;   {runtime_call}
  0x00007fb91cef3b29: e89297ffff          call      7fb91ceed2c0h
                                                ; OopMap{rax=Oop rsi=Oop off=558}
                                                ;*arraylength
                                                ; - java.lang.String::startsWith@21 (line 1407)
                                                ;   {runtime_call}
  0x00007fb91cef3b2e: e88d97ffff          call      7fb91ceed2c0h
                                                ; OopMap{rsi=Oop rax=Oop off=563}
                                                ;*arraylength
                                                ; - java.lang.String::startsWith@33 (line 1409)
                                                ;   {runtime_call}
  0x00007fb91cef3b33: 48890c24            mov       qword ptr [rsp],rcx
  0x00007fb91cef3b37: e8c490ffff          call      7fb91ceecc00h
                                                ; OopMap{rsi=Oop rax=Oop off=572}
                                                ;*caload
                                                ; - java.lang.String::startsWith@56 (line 1413)
                                                ;   {runtime_call}
  0x00007fb91cef3b3c: 48891c24            mov       qword ptr [rsp],rbx
  0x00007fb91cef3b40: e8bb90ffff          call      7fb91ceecc00h
                                                ; OopMap{rsi=Oop rax=Oop off=581}
                                                ;*caload
                                                ; - java.lang.String::startsWith@64 (line 1413)
                                                ;   {runtime_call}
  0x00007fb91cef3b45: 4c894c2408          mov       qword ptr [rsp+8h],r9
  0x00007fb91cef3b4a: 48c7042441000000    mov       qword ptr [rsp],41h
  0x00007fb91cef3b52: e849b7ffff          call      7fb91ceef2a0h
                                                ; OopMap{rsi=Oop rax=Oop off=599}
                                                ;*if_icmpeq
                                                ; - java.lang.String::startsWith@65 (line 1413)
                                                ;   {runtime_call}
  0x00007fb91cef3b57: e9fafeffff          jmp       7fb91cef3a56h
  0x00007fb91cef3b5c: 90                  nop
  0x00007fb91cef3b5d: 90                  nop
  0x00007fb91cef3b5e: 498b87a8020000      mov       rax,qword ptr [r15+2a8h]
  0x00007fb91cef3b65: 49ba0000000000000000 mov       r10,0h
  0x00007fb91cef3b6f: 4d8997a8020000      mov       qword ptr [r15+2a8h],r10
  0x00007fb91cef3b76: 49ba0000000000000000 mov       r10,0h
  0x00007fb91cef3b80: 4d8997b0020000      mov       qword ptr [r15+2b0h],r10
  0x00007fb91cef3b87: 4883c430            add       rsp,30h
  0x00007fb91cef3b8b: 5d                  pop       rbp
  0x00007fb91cef3b8c: e90fedf5ff          jmp       7fb91ce528a0h
                                                ;   {runtime_call}
  0x00007fb91cef3b91: f4                  hlt
  0x00007fb91cef3b92: f4                  hlt
  0x00007fb91cef3b93: f4                  hlt
  0x00007fb91cef3b94: f4                  hlt
  0x00007fb91cef3b95: f4                  hlt
  0x00007fb91cef3b96: f4                  hlt
  0x00007fb91cef3b97: f4                  hlt
  0x00007fb91cef3b98: f4                  hlt
  0x00007fb91cef3b99: f4                  hlt
  0x00007fb91cef3b9a: f4                  hlt
  0x00007fb91cef3b9b: f4                  hlt
  0x00007fb91cef3b9c: f4                  hlt
  0x00007fb91cef3b9d: f4                  hlt
  0x00007fb91cef3b9e: f4                  hlt
  0x00007fb91cef3b9f: f4                  hlt
[Exception Handler]
[Stub Code]
  0x00007fb91cef3ba0: e83be9f5ff          call      7fb91ce524e0h
                                                ;   {no_reloc}
  0x00007fb91cef3ba5: 48896424d8          mov       qword ptr [rsp+0ffffffffffffffd8h],rsp
  0x00007fb91cef3baa: 4881ec80000000      sub       rsp,80h
  0x00007fb91cef3bb1: 4889442478          mov       qword ptr [rsp+78h],rax
  0x00007fb91cef3bb6: 48894c2470          mov       qword ptr [rsp+70h],rcx
  0x00007fb91cef3bbb: 4889542468          mov       qword ptr [rsp+68h],rdx
  0x00007fb91cef3bc0: 48895c2460          mov       qword ptr [rsp+60h],rbx
  0x00007fb91cef3bc5: 48896c2450          mov       qword ptr [rsp+50h],rbp
  0x00007fb91cef3bca: 4889742448          mov       qword ptr [rsp+48h],rsi
  0x00007fb91cef3bcf: 48897c2440          mov       qword ptr [rsp+40h],rdi
  0x00007fb91cef3bd4: 4c89442438          mov       qword ptr [rsp+38h],r8
  0x00007fb91cef3bd9: 4c894c2430          mov       qword ptr [rsp+30h],r9
  0x00007fb91cef3bde: 4c89542428          mov       qword ptr [rsp+28h],r10
  0x00007fb91cef3be3: 4c895c2420          mov       qword ptr [rsp+20h],r11
  0x00007fb91cef3be8: 4c89642418          mov       qword ptr [rsp+18h],r12
  0x00007fb91cef3bed: 4c896c2410          mov       qword ptr [rsp+10h],r13
  0x00007fb91cef3bf2: 4c89742408          mov       qword ptr [rsp+8h],r14
  0x00007fb91cef3bf7: 4c893c24            mov       qword ptr [rsp],r15
  0x00007fb91cef3bfb: 48bff6591532b97f0000 mov       rdi,7fb9321559f6h
                                                ;   {external_word}
  0x00007fb91cef3c05: 48bea53bef1cb97f0000 mov       rsi,7fb91cef3ba5h
                                                ;   {internal_word}
  0x00007fb91cef3c0f: 488bd4              mov       rdx,rsp
  0x00007fb91cef3c12: 4883e4f0            and       rsp,0fffffffffffffff0h
  0x00007fb91cef3c16: e84556f614          call      7fb931e59260h
                                                ;   {runtime_call}
  0x00007fb91cef3c1b: f4                  hlt
[Deopt Handler Code]
  0x00007fb91cef3c1c: 49ba1c3cef1cb97f0000 mov       r10,7fb91cef3c1ch
                                                ;   {section_word}
  0x00007fb91cef3c26: 4152                push      r10
  0x00007fb91cef3c28: e9d378f3ff          jmp       7fb91ce2b500h
                                                ;   {runtime_call}
  0x00007fb91cef3c2d: f4                  hlt
  0x00007fb91cef3c2e: f4                  hlt
  0x00007fb91cef3c2f: f4                  hlt
<nmethod compile_id='18' compiler='C1' level='3' entry='0x00007fb91cef3900' size='1824' address='0x00007fb91cef3790' relocation_offset='296' insts_offset='368' stub_offset='1040' scopes_data_offset='1192' scopes_pcs_offset='1384' dependencies_offset='1784' nul_chk_table_offset='1792' method='java/lang/String startsWith (Ljava/lang/String;I)Z' bytes='72' count='793' backedge_count='1818' iicount='793' stamp='0.334'/>
Decoding compiled method 0x00007fb91cef3ed0:
Code:
Argument 0 is unknown.RIP: 0x7fb91cef4040 Code size: 0x00000190
<writer thread='140432902317824'/>
<destroy_vm stamp='0.334'/>
<writer thread='140432885225216'/>
[Entry Point]
[Verified Entry Point]
[Constants]
  # {method} {0x00007fb9166747d8} &apos;min&apos; &apos;(II)I&apos; in &apos;java/lang/Math&apos;
  # parm0:    rsi       = int
  # parm1:    rdx       = int
  #           [sp+0x40]  (sp of caller)
  0x00007fb91cef4040: 89842400c0feff      mov       dword ptr [rsp+0fffffffffffec000h],eax
  0x00007fb91cef4047: 55                  push      rbp
  0x00007fb91cef4048: 4883ec30            sub       rsp,30h
  0x00007fb91cef404c: 48b8e87f7416b97f0000 mov       rax,7fb916747fe8h
                                                ;   {metadata(method data for {method} {0x00007fb9166747d8} &apos;min&apos; &apos;(II)I&apos; in &apos;java/lang/Math&apos;)}
  0x00007fb91cef4056: 8bb8dc000000        mov       edi,dword ptr [rax+0dch]
  0x00007fb91cef405c: 83c708              add       edi,8h
  0x00007fb91cef405f: 89b8dc000000        mov       dword ptr [rax+0dch],edi
  0x00007fb91cef4065: 48b8d8476716b97f0000 mov       rax,7fb9166747d8h
                                                ;   {metadata({method} {0x00007fb9166747d8} &apos;min&apos; &apos;(II)I&apos; in &apos;java/lang/Math&apos;)}
  0x00007fb91cef406f: 81e7f81f0000        and       edi,1ff8h
  0x00007fb91cef4075: 83ff00              cmp       edi,0h
  0x00007fb91cef4078: 0f845f000000        je        7fb91cef40ddh
                                                ;*iload_0
                                                ; - java.lang.Math::min@0 (line 1336)

  0x00007fb91cef407e: 3bf2                cmp       esi,edx
  0x00007fb91cef4080: 48b8e87f7416b97f0000 mov       rax,7fb916747fe8h
                                                ;   {metadata(method data for {method} {0x00007fb9166747d8} &apos;min&apos; &apos;(II)I&apos; in &apos;java/lang/Math&apos;)}
  0x00007fb91cef408a: 48bf0801000000000000 mov       rdi,108h
  0x00007fb91cef4094: 0f8f0a000000        jnle      7fb91cef40a4h
  0x00007fb91cef409a: 48bf1801000000000000 mov       rdi,118h
  0x00007fb91cef40a4: 488b1c38            mov       rbx,qword ptr [rax+rdi]
  0x00007fb91cef40a8: 488d5b01            lea       rbx,[rbx+1h]
  0x00007fb91cef40ac: 48891c38            mov       qword ptr [rax+rdi],rbx
  0x00007fb91cef40b0: 0f8f15000000        jnle      7fb91cef40cbh
                                                ;*if_icmpgt
                                                ; - java.lang.Math::min@2 (line 1336)

  0x00007fb91cef40b6: 48b8e87f7416b97f0000 mov       rax,7fb916747fe8h
                                                ;   {metadata(method data for {method} {0x00007fb9166747d8} &apos;min&apos; &apos;(II)I&apos; in &apos;java/lang/Math&apos;)}
  0x00007fb91cef40c0: ff8028010000        inc       dword ptr [rax+128h]
  0x00007fb91cef40c6: e903000000          jmp       7fb91cef40ceh
                                                ;*goto
                                                ; - java.lang.Math::min@6 (line 1336)

  0x00007fb91cef40cb: 488bf2              mov       rsi,rdx
                                                ;*ireturn
                                                ; - java.lang.Math::min@10 (line 1336)

  0x00007fb91cef40ce: 488bc6              mov       rax,rsi
  0x00007fb91cef40d1: 4883c430            add       rsp,30h
  0x00007fb91cef40d5: 5d                  pop       rbp
  0x00007fb91cef40d6: 850524f03716        test      dword ptr [7fb933273100h],eax
                                                ;   {poll_return}
  0x00007fb91cef40dc: c3                  ret
  0x00007fb91cef40dd: 4889442408          mov       qword ptr [rsp+8h],rax
  0x00007fb91cef40e2: 48c70424ffffffff    mov       qword ptr [rsp],0ffffffffffffffffh
  0x00007fb91cef40ea: e8b1b1ffff          call      7fb91ceef2a0h
                                                ; OopMap{off=175}
                                                ;*synchronization entry
                                                ; - java.lang.Math::min@-1 (line 1336)
                                                ;   {runtime_call}
  0x00007fb91cef40ef: eb8d                jmp       7fb91cef407eh
  0x00007fb91cef40f1: 90                  nop
  0x00007fb91cef40f2: 90                  nop
  0x00007fb91cef40f3: 498b87a8020000      mov       rax,qword ptr [r15+2a8h]
  0x00007fb91cef40fa: 49ba0000000000000000 mov       r10,0h
  0x00007fb91cef4104: 4d8997a8020000      mov       qword ptr [r15+2a8h],r10
  0x00007fb91cef410b: 49ba0000000000000000 mov       r10,0h
  0x00007fb91cef4115: 4d8997b0020000      mov       qword ptr [r15+2b0h],r10
  0x00007fb91cef411c: 4883c430            add       rsp,30h
  0x00007fb91cef4120: 5d                  pop       rbp
  0x00007fb91cef4121: e97ae7f5ff          jmp       7fb91ce528a0h
                                                ;   {runtime_call}
  0x00007fb91cef4126: f4                  hlt
  0x00007fb91cef4127: f4                  hlt
  0x00007fb91cef4128: f4                  hlt
  0x00007fb91cef4129: f4                  hlt
  0x00007fb91cef412a: f4                  hlt
  0x00007fb91cef412b: f4                  hlt
  0x00007fb91cef412c: f4                  hlt
  0x00007fb91cef412d: f4                  hlt
  0x00007fb91cef412e: f4                  hlt
  0x00007fb91cef412f: f4                  hlt
  0x00007fb91cef4130: f4                  hlt
  0x00007fb91cef4131: f4                  hlt
  0x00007fb91cef4132: f4                  hlt
  0x00007fb91cef4133: f4                  hlt
  0x00007fb91cef4134: f4                  hlt
  0x00007fb91cef4135: f4                  hlt
  0x00007fb91cef4136: f4                  hlt
  0x00007fb91cef4137: f4                  hlt
  0x00007fb91cef4138: f4                  hlt
  0x00007fb91cef4139: f4                  hlt
  0x00007fb91cef413a: f4                  hlt
  0x00007fb91cef413b: f4                  hlt
  0x00007fb91cef413c: f4                  hlt
  0x00007fb91cef413d: f4                  hlt
  0x00007fb91cef413e: f4                  hlt
  0x00007fb91cef413f: f4                  hlt
[Exception Handler]
[Stub Code]
  0x00007fb91cef4140: e89be3f5ff          call      7fb91ce524e0h
                                                ;   {no_reloc}
  0x00007fb91cef4145: 48896424d8          mov       qword ptr [rsp+0ffffffffffffffd8h],rsp
  0x00007fb91cef414a: 4881ec80000000      sub       rsp,80h
  0x00007fb91cef4151: 4889442478          mov       qword ptr [rsp+78h],rax
  0x00007fb91cef4156: 48894c2470          mov       qword ptr [rsp+70h],rcx
  0x00007fb91cef415b: 4889542468          mov       qword ptr [rsp+68h],rdx
  0x00007fb91cef4160: 48895c2460          mov       qword ptr [rsp+60h],rbx
  0x00007fb91cef4165: 48896c2450          mov       qword ptr [rsp+50h],rbp
  0x00007fb91cef416a: 4889742448          mov       qword ptr [rsp+48h],rsi
  0x00007fb91cef416f: 48897c2440          mov       qword ptr [rsp+40h],rdi
  0x00007fb91cef4174: 4c89442438          mov       qword ptr [rsp+38h],r8
  0x00007fb91cef4179: 4c894c2430          mov       qword ptr [rsp+30h],r9
  0x00007fb91cef417e: 4c89542428          mov       qword ptr [rsp+28h],r10
  0x00007fb91cef4183: 4c895c2420          mov       qword ptr [rsp+20h],r11
  0x00007fb91cef4188: 4c89642418          mov       qword ptr [rsp+18h],r12
  0x00007fb91cef418d: 4c896c2410          mov       qword ptr [rsp+10h],r13
  0x00007fb91cef4192: 4c89742408          mov       qword ptr [rsp+8h],r14
  0x00007fb91cef4197: 4c893c24            mov       qword ptr [rsp],r15
  0x00007fb91cef419b: 48bff6591532b97f0000 mov       rdi,7fb9321559f6h
                                                ;   {external_word}
  0x00007fb91cef41a5: 48be4541ef1cb97f0000 mov       rsi,7fb91cef4145h
                                                ;   {internal_word}
  0x00007fb91cef41af: 488bd4              mov       rdx,rsp
  0x00007fb91cef41b2: 4883e4f0            and       rsp,0fffffffffffffff0h
  0x00007fb91cef41b6: e8a550f614          call      7fb931e59260h
                                                ;   {runtime_call}
  0x00007fb91cef41bb: f4                  hlt
[Deopt Handler Code]
  0x00007fb91cef41bc: 49babc41ef1cb97f0000 mov       r10,7fb91cef41bch
                                                ;   {section_word}
  0x00007fb91cef41c6: 4152                push      r10
  0x00007fb91cef41c8: e93373f3ff          jmp       7fb91ce2b500h
                                                ;   {runtime_call}
  0x00007fb91cef41cd: f4                  hlt
  0x00007fb91cef41ce: f4                  hlt
  0x00007fb91cef41cf: f4                  hlt
<nmethod compile_id='19' compiler='C1' level='3' entry='0x00007fb91cef4040' size='936' address='0x00007fb91cef3ed0' relocation_offset='296' insts_offset='368' stub_offset='624' scopes_data_offset='776' scopes_pcs_offset='816' dependencies_offset='928' method='java/lang/Math min (II)I' bytes='11' count='2723' iicount='2723' stamp='0.346'/>
<tty_done stamp='0.666'/>
</tty>
<compilation_log thread='140432885225216'>
<start_compile_thread name='C1 CompilerThread2' thread='140432885225216' process='24801' stamp='0.180'/>
<task compile_id='7' method='java/lang/String hashCode ()I' bytes='55' count='869' backedge_count='19794' iicount='869' level='3' stamp='0.209'>
<phase name='buildIR' stamp='0.209'>
<type id='731' name='int'/>
<klass id='739' name='java/lang/String' flags='17'/>
<method id='842' holder='739' name='hashCode' return='731' flags='1' bytes='55' iicount='869'/>
<parse method='842'  stamp='0.209'>
<parse_done stamp='0.209'/>
</parse>
<phase name='optimize_blocks' stamp='0.209'>
<phase_done name='optimize_blocks' stamp='0.209'/>
</phase>
<phase name='rangeCheckElimination' stamp='0.209'>
<phase_done name='rangeCheckElimination' stamp='0.209'/>
</phase>
<phase name='optimize_null_checks' stamp='0.209'>
<phase_done name='optimize_null_checks' stamp='0.209'/>
</phase>
<phase_done name='buildIR' stamp='0.209'/>
</phase>
<phase name='emit_lir' stamp='0.209'>
<phase name='lirGeneration' stamp='0.209'>
<phase_done name='lirGeneration' stamp='0.209'/>
</phase>
<phase name='linearScan' stamp='0.209'>
<phase_done name='linearScan' stamp='0.209'/>
</phase>
<phase_done name='emit_lir' stamp='0.209'/>
</phase>
<phase name='codeemit' stamp='0.209'>
<phase_done name='codeemit' stamp='0.210'/>
</phase>
<phase name='codeinstall' stamp='0.210'>
<phase_done name='codeinstall' stamp='0.233'/>
</phase>
<code_cache total_blobs='244' nmethods='3' adapters='156' free_code_cache='250561024'/>
<task_done success='1' nmsize='656' count='869' backedge_count='19794' stamp='0.233'/>
</task>
<task compile_id='6' method='java/lang/String indexOf (II)I' bytes='70' count='653' backedge_count='29703' iicount='653' level='3' stamp='0.233'>
<phase name='buildIR' stamp='0.233'>
<type id='731' name='int'/>
<klass id='739' name='java/lang/String' flags='17'/>
<method id='842' holder='739' name='indexOf' return='731' arguments='731 731' flags='1' bytes='70' iicount='653'/>
<parse method='842'  stamp='0.233'>
<bc code='183' bci='66'/>
<method id='844' holder='739' name='indexOfSupplementary' return='731' arguments='731 731' flags='2' bytes='71' iicount='1'/>
<call method='844' instr='invokespecial'/>
<inline_fail reason='callee is too large'/>
<parse_done stamp='0.233'/>
</parse>
<phase name='optimize_blocks' stamp='0.233'>
<phase_done name='optimize_blocks' stamp='0.233'/>
</phase>
<phase name='rangeCheckElimination' stamp='0.233'>
<phase_done name='rangeCheckElimination' stamp='0.233'/>
</phase>
<phase name='optimize_null_checks' stamp='0.233'>
<phase_done name='optimize_null_checks' stamp='0.233'/>
</phase>
<phase_done name='buildIR' stamp='0.233'/>
</phase>
<phase name='emit_lir' stamp='0.233'>
<phase name='lirGeneration' stamp='0.233'>
<phase_done name='lirGeneration' stamp='0.233'/>
</phase>
<phase name='linearScan' stamp='0.233'>
<phase_done name='linearScan' stamp='0.234'/>
</phase>
<phase_done name='emit_lir' stamp='0.234'/>
</phase>
<phase name='codeemit' stamp='0.234'>
<phase_done name='codeemit' stamp='0.234'/>
</phase>
<phase name='codeinstall' stamp='0.234'>
<phase_done name='codeinstall' stamp='0.248'/>
</phase>
<code_cache total_blobs='247' nmethods='4' adapters='158' free_code_cache='250558080'/>
<task_done success='1' nmsize='904' count='767' backedge_count='29855' stamp='0.248'/>
</task>
<task compile_id='9' method='java/lang/String equals (Ljava/lang/Object;)Z' bytes='81' count='1020' backedge_count='2984' iicount='1020' level='3' stamp='0.248'>
<phase name='buildIR' stamp='0.248'>
<type id='725' name='boolean'/>
<klass id='738' name='java/lang/Object' flags='1'/>
<klass id='739' name='java/lang/String' flags='17'/>
<method id='842' holder='739' name='equals' return='725' arguments='738' flags='1' bytes='81' iicount='1022'/>
<parse method='842'  stamp='0.248'>
<parse_done stamp='0.248'/>
</parse>
<phase name='optimize_blocks' stamp='0.248'>
<phase_done name='optimize_blocks' stamp='0.248'/>
</phase>
<phase name='rangeCheckElimination' stamp='0.248'>
<phase_done name='rangeCheckElimination' stamp='0.248'/>
</phase>
<phase name='optimize_null_checks' stamp='0.248'>
<phase_done name='optimize_null_checks' stamp='0.248'/>
</phase>
<phase_done name='buildIR' stamp='0.248'/>
</phase>
<phase name='emit_lir' stamp='0.248'>
<phase name='lirGeneration' stamp='0.248'>
<phase_done name='lirGeneration' stamp='0.248'/>
</phase>
<phase name='linearScan' stamp='0.248'>
<phase_done name='linearScan' stamp='0.249'/>
</phase>
<phase_done name='emit_lir' stamp='0.249'/>
</phase>
<phase name='codeemit' stamp='0.249'>
<phase_done name='codeemit' stamp='0.249'/>
</phase>
<phase name='codeinstall' stamp='0.249'>
<phase_done name='codeinstall' stamp='0.264'/>
</phase>
<code_cache total_blobs='248' nmethods='5' adapters='158' free_code_cache='250555520'/>
<task_done success='1' nmsize='1360' count='1030' backedge_count='3016' stamp='0.264'/>
</task>
<task compile_id='13' method='java/lang/Object &lt;init&gt; ()V' bytes='1' count='3978' iicount='3978' level='3' stamp='0.264'>
<phase name='buildIR' stamp='0.265'>
<type id='733' name='void'/>
<klass id='738' name='java/lang/Object' flags='1'/>
<method id='842' holder='738' name='&lt;init&gt;' return='733' flags='1' bytes='1' iicount='3978'/>
<parse method='842'  stamp='0.265'>
<parse_done stamp='0.265'/>
</parse>
<phase name='optimize_blocks' stamp='0.265'>
<phase_done name='optimize_blocks' stamp='0.265'/>
</phase>
<phase name='rangeCheckElimination' stamp='0.265'>
<phase_done name='rangeCheckElimination' stamp='0.265'/>
</phase>
<phase name='optimize_null_checks' stamp='0.265'>
<phase_done name='optimize_null_checks' stamp='0.265'/>
</phase>
<phase_done name='buildIR' stamp='0.265'/>
</phase>
<phase name='emit_lir' stamp='0.265'>
<phase name='lirGeneration' stamp='0.265'>
<phase_done name='lirGeneration' stamp='0.265'/>
</phase>
<phase name='linearScan' stamp='0.265'>
<phase_done name='linearScan' stamp='0.265'/>
</phase>
<phase_done name='emit_lir' stamp='0.265'/>
</phase>
<phase name='codeemit' stamp='0.265'>
<phase_done name='codeemit' stamp='0.265'/>
</phase>
<phase name='codeinstall' stamp='0.265'>
<phase_done name='codeinstall' stamp='0.275'/>
</phase>
<code_cache total_blobs='249' nmethods='6' adapters='158' free_code_cache='250554624'/>
<task_done success='1' nmsize='336' count='3990' stamp='0.275'/>
</task>
<task compile_id='14' method='java/lang/String length ()I' bytes='6' count='2189' iicount='2189' level='3' stamp='0.275'>
<phase name='buildIR' stamp='0.275'>
<type id='731' name='int'/>
<klass id='739' name='java/lang/String' flags='17'/>
<method id='842' holder='739' name='length' return='731' flags='1' bytes='6' iicount='2189'/>
<parse method='842'  stamp='0.275'>
<parse_done stamp='0.275'/>
</parse>
<phase name='optimize_blocks' stamp='0.275'>
<phase_done name='optimize_blocks' stamp='0.275'/>
</phase>
<phase name='rangeCheckElimination' stamp='0.275'>
<phase_done name='rangeCheckElimination' stamp='0.275'/>
</phase>
<phase name='optimize_null_checks' stamp='0.275'>
<phase_done name='optimize_null_checks' stamp='0.275'/>
</phase>
<phase_done name='buildIR' stamp='0.275'/>
</phase>
<phase name='emit_lir' stamp='0.275'>
<phase name='lirGeneration' stamp='0.275'>
<phase_done name='lirGeneration' stamp='0.275'/>
</phase>
<phase name='linearScan' stamp='0.275'>
<phase_done name='linearScan' stamp='0.275'/>
</phase>
<phase_done name='emit_lir' stamp='0.275'/>
</phase>
<phase name='codeemit' stamp='0.275'>
<phase_done name='codeemit' stamp='0.275'/>
</phase>
<phase name='codeinstall' stamp='0.275'>
<phase_done name='codeinstall' stamp='0.287'/>
</phase>
<code_cache total_blobs='250' nmethods='7' adapters='158' free_code_cache='250553664'/>
<task_done success='1' nmsize='368' count='2234' stamp='0.287'/>
</task>
<task compile_id='17' method='sun/nio/cs/UTF_8$Encoder encode ([CII[B)I' bytes='359' count='403' backedge_count='22534' iicount='403' level='3' stamp='0.287'>
<phase name='buildIR' stamp='0.287'>
<type id='731' name='int'/>
<klass id='831' name='[C' flags='1041'/>
<klass id='834' name='[B' flags='1041'/>
<klass id='842' name='sun/nio/cs/UTF_8$Encoder' flags='26'/>
<method id='843' holder='842' name='encode' return='731' arguments='831 731 731 834' flags='1' bytes='359' iicount='403'/>
<parse method='843'  stamp='0.287'>
<bc code='184' bci='14'/>
<klass id='845' name='java/lang/Math' flags='17'/>
<method id='846' holder='845' name='min' return='731' arguments='731 731' flags='9' bytes='11' iicount='2648'/>
<call method='846' instr='invokestatic'/>
<inline_success reason='receiver is statically known'/>
<parse method='846'>
<parse_done stamp='0.287'/>
</parse>
<bc code='184' bci='139'/>
<type id='725' name='boolean'/>
<type id='726' name='char'/>
<klass id='820' name='java/lang/Character' flags='17'/>
<method id='848' holder='820' name='isSurrogate' return='725' arguments='726' flags='9' bytes='18' iicount='1'/>
<call method='848' instr='invokestatic'/>
<inline_success reason='receiver is statically known'/>
<parse method='848'>
<parse_done stamp='0.287'/>
</parse>
<bc code='183' bci='157'/>
<type id='733' name='void'/>
<klass id='850' name='sun/nio/cs/Surrogate$Parser' unloaded='1'/>
<method id='851' holder='850' name='&lt;init&gt;' return='733' unloaded='1'/>
<call method='851' instr='invokespecial'/>
<inline_fail reason='not inlineable'/>
<bc code='182' bci='175'/>
<method id='852' holder='850' name='parse' return='731' arguments='726 831 731 731' unloaded='1'/>
<call method='852' instr='invokevirtual'/>
<inline_fail reason='not inlineable'/>
<bc code='182' bci='186'/>
<klass id='854' name='java/nio/charset/CodingErrorAction' flags='1'/>
<klass id='853' name='java/nio/charset/CharsetEncoder' flags='1025'/>
<method id='855' holder='853' name='malformedInputAction' return='854' flags='1' bytes='5' iicount='1'/>
<call method='855' instr='invokevirtual'/>
<inline_success reason='receiver is statically known'/>
<parse method='855'>
<parse_done stamp='0.287'/>
</parse>
<parse_done stamp='0.287'/>
</parse>
<phase name='optimize_blocks' stamp='0.287'>
<phase_done name='optimize_blocks' stamp='0.287'/>
</phase>
<phase name='rangeCheckElimination' stamp='0.288'>
<phase_done name='rangeCheckElimination' stamp='0.288'/>
</phase>
<phase name='optimize_null_checks' stamp='0.288'>
<phase_done name='optimize_null_checks' stamp='0.288'/>
</phase>
<phase_done name='buildIR' stamp='0.288'/>
</phase>
<phase name='emit_lir' stamp='0.288'>
<phase name='lirGeneration' stamp='0.288'>
<phase_done name='lirGeneration' stamp='0.288'/>
</phase>
<phase name='linearScan' stamp='0.288'>
<phase_done name='linearScan' stamp='0.290'/>
</phase>
<phase_done name='emit_lir' stamp='0.290'/>
</phase>
<phase name='codeemit' stamp='0.290'>
<phase_done name='codeemit' stamp='0.290'/>
</phase>
<phase name='codeinstall' stamp='0.290'>
<phase_done name='codeinstall' stamp='0.316'/>
</phase>
<code_cache total_blobs='254' nmethods='8' adapters='161' free_code_cache='250546560'/>
<task_done success='1' nmsize='2872' count='420' backedge_count='23405' inlined_bytes='34' stamp='0.316'/>
</task>
<task compile_id='18' method='java/lang/String startsWith (Ljava/lang/String;I)Z' bytes='72' count='793' backedge_count='1818' iicount='793' level='3' stamp='0.316'>
<phase name='buildIR' stamp='0.316'>
<type id='725' name='boolean'/>
<klass id='739' name='java/lang/String' flags='17'/>
<type id='731' name='int'/>
<method id='842' holder='739' name='startsWith' return='725' arguments='739 731' flags='1' bytes='72' iicount='793'/>
<parse method='842'  stamp='0.316'>
<parse_done stamp='0.316'/>
</parse>
<phase name='optimize_blocks' stamp='0.316'>
<phase_done name='optimize_blocks' stamp='0.316'/>
</phase>
<phase name='rangeCheckElimination' stamp='0.316'>
<phase_done name='rangeCheckElimination' stamp='0.316'/>
</phase>
<phase name='optimize_null_checks' stamp='0.316'>
<phase_done name='optimize_null_checks' stamp='0.316'/>
</phase>
<phase_done name='buildIR' stamp='0.316'/>
</phase>
<phase name='emit_lir' stamp='0.316'>
<phase name='lirGeneration' stamp='0.316'>
<phase_done name='lirGeneration' stamp='0.316'/>
</phase>
<phase name='linearScan' stamp='0.316'>
<phase_done name='linearScan' stamp='0.317'/>
</phase>
<phase_done name='emit_lir' stamp='0.317'/>
</phase>
<phase name='codeemit' stamp='0.317'>
<phase_done name='codeemit' stamp='0.317'/>
</phase>
<phase name='codeinstall' stamp='0.317'>
<phase_done name='codeinstall' stamp='0.334'/>
</phase>
<code_cache total_blobs='255' nmethods='9' adapters='161' free_code_cache='250544704'/>
<task_done success='1' nmsize='816' count='793' backedge_count='1818' stamp='0.334'/>
</task>
<fragment>
<![CDATA[
<task compile_id='19' method='java/lang/Math min (II)I' bytes='11' count='2723' iicount='2723' level='3' stamp='0.334'>
<phase name='buildIR' stamp='0.334'>
<type id='731' name='int'/>
<klass id='842' name='java/lang/Math' flags='17'/>
<method id='843' holder='842' name='min' return='731' arguments='731 731' flags='9' bytes='11' iicount='2723'/>
<parse method='843'  stamp='0.334'>
<parse_done stamp='0.334'/>
</parse>
<phase name='optimize_blocks' stamp='0.334'>
<phase_done name='optimize_blocks' stamp='0.334'/>
</phase>
<phase name='rangeCheckElimination' stamp='0.334'>
<phase_done name='rangeCheckElimination' stamp='0.334'/>
</phase>
<phase name='optimize_null_checks' stamp='0.334'>
<phase_done name='optimize_null_checks' stamp='0.334'/>
</phase>
<phase_done name='buildIR' stamp='0.334'/>
</phase>
<phase name='emit_lir' stamp='0.334'>
<phase name='lirGeneration' stamp='0.334'>
<phase_done name='lirGeneration' stamp='0.334'/>
</phase>
<phase name='linearScan' stamp='0.334'>
<phase_done name='linearScan' stamp='0.334'/>
</phase>
<phase_done name='emit_lir' stamp='0.334'/>
</phase>
<phase name='codeemit' stamp='0.334'>
<phase_done name='codeemit' stamp='0.334'/>
</phase>
<phase name='codeinstall' stamp='0.334'>
]]>
</fragment>
</compilation_log>
<compilation_log thread='140432893269760'>
<fragment>
<![CDATA[
<start_compile_thread name='C2 CompilerThread1' thread='140432893269760' process='24801' stamp='0.176'/>
]]>
</fragment>
</compilation_log>
<compilation_log thread='140432894322432'>
<start_compile_thread name='C2 CompilerThread0' thread='140432894322432' process='24801' stamp='0.165'/>
<task compile_id='8' method='java/lang/String charAt (I)C' bytes='29' count='15360' iicount='15360' stamp='0.194'>
<phase name='parse' nodes='3' live='3' stamp='0.194'>
<type id='726' name='char'/>
<type id='731' name='int'/>
<klass id='739' name='java/lang/String' flags='17'/>
<method id='842' holder='739' name='charAt' return='726' arguments='731' flags='1' bytes='29' iicount='15360'/>
<klass id='844' name='java/lang/StringIndexOutOfBoundsException' unloaded='1'/>
<uncommon_trap method='842' bci='13' reason='unloaded' action='reinterpret' index='6' klass='844'/>
<parse method='842' uses='15360' stamp='0.194'>
<bc code='155' bci='1'/>
<branch target_bci='13' taken='0' not_taken='15359' cnt='15359' prob='never'/>
<uncommon_trap bci='1' reason='unstable_if' action='reinterpret' comment='taken never'/>
<bc code='190' bci='9'/>
<uncommon_trap bci='9' reason='null_check' action='maybe_recompile'/>
<bc code='161' bci='10'/>
<branch target_bci='22' taken='15359' not_taken='0' cnt='15359' prob='always'/>
<uncommon_trap bci='10' reason='unstable_if' action='reinterpret' comment='taken always'/>
<bc code='52' bci='27'/>
<uncommon_trap bci='27' reason='range_check' action='make_not_entrant' comment='range_check'/>
<parse_done nodes='102' live='97' memory='35040' stamp='0.195'/>
</parse>
<phase_done name='parse' nodes='103' live='63' stamp='0.195'/>
</phase>
<phase name='optimizer' nodes='103' live='63' stamp='0.195'>
<phase name='ccp' nodes='103' live='63' stamp='0.195'>
<phase_done name='ccp' nodes='103' live='63' stamp='0.195'/>
</phase>
<phase name='idealLoop' nodes='103' live='63' stamp='0.195'>
<phase_done name='idealLoop' nodes='103' live='63' stamp='0.195'/>
</phase>
<phase_done name='optimizer' nodes='107' live='63' stamp='0.195'/>
</phase>
<phase name='matcher' nodes='107' live='63' stamp='0.195'>
<phase_done name='matcher' nodes='55' live='55' stamp='0.195'/>
</phase>
<phase name='regalloc' nodes='70' live='69' stamp='0.195'>
<regalloc attempts='1' success='1'/>
<phase_done name='regalloc' nodes='80' live='75' stamp='0.195'/>
</phase>
<phase name='output' nodes='80' live='75' stamp='0.196'>
<phase_done name='output' nodes='94' live='86' stamp='0.196'/>
</phase>
<code_cache total_blobs='233' nmethods='2' adapters='155' free_code_cache='250564672'/>
<task_done success='1' nmsize='216' count='15462' stamp='0.209'/>
</task>
</compilation_log>
<hotspot_log_done stamp='0.666'/>
</hotspot_log>
